ARM GAS  /tmp/cc6RUpyr.s 			page 1


   1              		.cpu cortex-m4
   2              		.eabi_attribute 27, 1
   3              		.eabi_attribute 28, 1
   4              		.eabi_attribute 20, 1
   5              		.eabi_attribute 21, 1
   6              		.eabi_attribute 23, 3
   7              		.eabi_attribute 24, 1
   8              		.eabi_attribute 25, 1
   9              		.eabi_attribute 26, 1
  10              		.eabi_attribute 30, 1
  11              		.eabi_attribute 34, 1
  12              		.eabi_attribute 18, 4
  13              		.file	"app.cpp"
  14              		.text
  15              	.Ltext0:
  16              		.cfi_sections	.debug_frame
  17              		.section	.text._ZN3AppC2Ev,"ax",%progbits
  18              		.align	1
  19              		.global	_ZN3AppC2Ev
  20              		.arch armv7e-m
  21              		.syntax unified
  22              		.thumb
  23              		.thumb_func
  24              		.fpu fpv4-sp-d16
  26              	_ZN3AppC2Ev:
  27              		.fnstart
  28              	.LVL0:
  29              	.LFB124:
  30              		.file 1 "App/Src/app.cpp"
   1:App/Src/app.cpp **** #include "app.hpp"
   2:App/Src/app.cpp **** #include "gpio.h"
   3:App/Src/app.cpp **** 
   4:App/Src/app.cpp **** App::App(/* args */)
  31              		.loc 1 4 1 view -0
  32              		.cfi_startproc
  33              		@ args = 0, pretend = 0, frame = 0
  34              		@ frame_needed = 0, uses_anonymous_args = 0
  35              		@ link register save eliminated.
  36              	.LBB2:
  37              		.loc 1 4 20 is_stmt 0 view .LVU1
  38 0000 0022     		movs	r2, #0
  39 0002 0280     		strh	r2, [r0]	@ movhi
  40 0004 4FF4FA72 		mov	r2, #500
  41 0008 4280     		strh	r2, [r0, #2]	@ movhi
  42              	.LBE2:
   5:App/Src/app.cpp **** {
   6:App/Src/app.cpp **** }
  43              		.loc 1 6 1 view .LVU2
  44 000a 7047     		bx	lr
  45              		.cfi_endproc
  46              	.LFE124:
  47              		.cantunwind
  48              		.fnend
  50              		.global	_ZN3AppC1Ev
  51              		.thumb_set _ZN3AppC1Ev,_ZN3AppC2Ev
  52              		.section	.text._ZN3App5setupEv,"ax",%progbits
  53              		.align	1
ARM GAS  /tmp/cc6RUpyr.s 			page 2


  54              		.global	_ZN3App5setupEv
  55              		.syntax unified
  56              		.thumb
  57              		.thumb_func
  58              		.fpu fpv4-sp-d16
  60              	_ZN3App5setupEv:
  61              		.fnstart
  62              	.LVL1:
  63              	.LFB126:
   7:App/Src/app.cpp **** 
   8:App/Src/app.cpp **** void App::setup()
   9:App/Src/app.cpp **** {
  64              		.loc 1 9 1 is_stmt 1 view -0
  65              		.cfi_startproc
  66              		@ args = 0, pretend = 0, frame = 0
  67              		@ frame_needed = 0, uses_anonymous_args = 0
  68              		@ link register save eliminated.
  10:App/Src/app.cpp **** }
  69              		.loc 1 10 1 is_stmt 0 view .LVU4
  70 0000 7047     		bx	lr
  71              		.cfi_endproc
  72              	.LFE126:
  73              		.cantunwind
  74              		.fnend
  76              		.section	.text._ZN3App9led_blinkEv,"ax",%progbits
  77              		.align	1
  78              		.global	_ZN3App9led_blinkEv
  79              		.syntax unified
  80              		.thumb
  81              		.thumb_func
  82              		.fpu fpv4-sp-d16
  84              	_ZN3App9led_blinkEv:
  85              		.fnstart
  86              	.LVL2:
  87              	.LFB128:
  11:App/Src/app.cpp **** 
  12:App/Src/app.cpp **** void App::loop()
  13:App/Src/app.cpp **** {
  14:App/Src/app.cpp ****     led_blink();
  15:App/Src/app.cpp ****     HAL_Delay(1);
  16:App/Src/app.cpp **** }
  17:App/Src/app.cpp **** 
  18:App/Src/app.cpp **** void App::led_blink()
  19:App/Src/app.cpp **** {
  88              		.loc 1 19 1 is_stmt 1 view -0
  89              		.cfi_startproc
  90              		@ args = 0, pretend = 0, frame = 0
  91              		@ frame_needed = 0, uses_anonymous_args = 0
  20:App/Src/app.cpp ****     led_blink_counter++;
  92              		.loc 1 20 5 view .LVU6
  93 0000 0388     		ldrh	r3, [r0]
  94              		.loc 1 20 22 is_stmt 0 view .LVU7
  95 0002 0133     		adds	r3, r3, #1
  96 0004 9BB2     		uxth	r3, r3
  97 0006 0380     		strh	r3, [r0]	@ movhi
  21:App/Src/app.cpp ****     if (led_blink_counter >= led_blink_interval)
  98              		.loc 1 21 5 is_stmt 1 view .LVU8
ARM GAS  /tmp/cc6RUpyr.s 			page 3


  99              		.loc 1 21 30 is_stmt 0 view .LVU9
 100 0008 4288     		ldrh	r2, [r0, #2]
 101              		.loc 1 21 5 view .LVU10
 102 000a 9342     		cmp	r3, r2
 103 000c 00D2     		bcs	.L9
 104 000e 7047     		bx	lr
 105              	.L9:
  19:App/Src/app.cpp ****     led_blink_counter++;
 106              		.loc 1 19 1 view .LVU11
 107 0010 10B5     		push	{r4, lr}
 108              		.save {r4, lr}
 109              	.LCFI0:
 110              		.cfi_def_cfa_offset 8
 111              		.cfi_offset 4, -8
 112              		.cfi_offset 14, -4
 113 0012 0446     		mov	r4, r0
  22:App/Src/app.cpp ****     {
  23:App/Src/app.cpp ****         HAL_GPIO_TogglePin(LED_6_GPIO_Port, LED_6_Pin); // LEDをトグル
 114              		.loc 1 23 9 is_stmt 1 view .LVU12
 115              		.loc 1 23 27 is_stmt 0 view .LVU13
 116 0014 4FF48051 		mov	r1, #4096
 117 0018 4FF09040 		mov	r0, #1207959552
 118              	.LVL3:
 119              		.loc 1 23 27 view .LVU14
 120 001c FFF7FEFF 		bl	HAL_GPIO_TogglePin
 121              	.LVL4:
  24:App/Src/app.cpp ****         led_blink_counter = 0;
 122              		.loc 1 24 9 is_stmt 1 view .LVU15
 123              		.loc 1 24 27 is_stmt 0 view .LVU16
 124 0020 0023     		movs	r3, #0
 125 0022 2380     		strh	r3, [r4]	@ movhi
  25:App/Src/app.cpp ****     }
  26:App/Src/app.cpp **** }
 126              		.loc 1 26 1 view .LVU17
 127 0024 10BD     		pop	{r4, pc}
 128              		.loc 1 26 1 view .LVU18
 129              		.cfi_endproc
 130              	.LFE128:
 131              		.fnend
 133              		.section	.text._ZN3App4loopEv,"ax",%progbits
 134              		.align	1
 135              		.global	_ZN3App4loopEv
 136              		.syntax unified
 137              		.thumb
 138              		.thumb_func
 139              		.fpu fpv4-sp-d16
 141              	_ZN3App4loopEv:
 142              		.fnstart
 143              	.LVL5:
 144              	.LFB127:
  13:App/Src/app.cpp ****     led_blink();
 145              		.loc 1 13 1 is_stmt 1 view -0
 146              		.cfi_startproc
 147              		@ args = 0, pretend = 0, frame = 0
 148              		@ frame_needed = 0, uses_anonymous_args = 0
  13:App/Src/app.cpp ****     led_blink();
 149              		.loc 1 13 1 is_stmt 0 view .LVU20
ARM GAS  /tmp/cc6RUpyr.s 			page 4


 150 0000 08B5     		push	{r3, lr}
 151              		.save {r3, lr}
 152              	.LCFI1:
 153              		.cfi_def_cfa_offset 8
 154              		.cfi_offset 3, -8
 155              		.cfi_offset 14, -4
  14:App/Src/app.cpp ****     HAL_Delay(1);
 156              		.loc 1 14 5 is_stmt 1 view .LVU21
  14:App/Src/app.cpp ****     HAL_Delay(1);
 157              		.loc 1 14 14 is_stmt 0 view .LVU22
 158 0002 FFF7FEFF 		bl	_ZN3App9led_blinkEv
 159              	.LVL6:
  15:App/Src/app.cpp **** }
 160              		.loc 1 15 5 is_stmt 1 view .LVU23
  15:App/Src/app.cpp **** }
 161              		.loc 1 15 14 is_stmt 0 view .LVU24
 162 0006 0120     		movs	r0, #1
 163 0008 FFF7FEFF 		bl	HAL_Delay
 164              	.LVL7:
  16:App/Src/app.cpp **** 
 165              		.loc 1 16 1 view .LVU25
 166 000c 08BD     		pop	{r3, pc}
 167              		.cfi_endproc
 168              	.LFE127:
 169              		.fnend
 171              		.text
 172              	.Letext0:
 173              		.file 2 "/usr/lib/gcc/arm-none-eabi/10.3.1/include/stdint.h"
 174              		.file 3 "App/Inc/app.hpp"
 175              		.file 4 "Drivers/CMSIS/Device/ST/STM32F3xx/Include/stm32f303x8.h"
 176              		.file 5 "Drivers/STM32F3xx_HAL_Driver/Inc/stm32f3xx_hal_gpio.h"
 177              		.file 6 "Drivers/STM32F3xx_HAL_Driver/Inc/stm32f3xx_hal.h"
ARM GAS  /tmp/cc6RUpyr.s 			page 5


DEFINED SYMBOLS
                            *ABS*:0000000000000000 app.cpp
     /tmp/cc6RUpyr.s:18     .text._ZN3AppC2Ev:0000000000000000 $t
     /tmp/cc6RUpyr.s:26     .text._ZN3AppC2Ev:0000000000000000 _ZN3AppC2Ev
      .ARM.exidx.text._ZN3AppC2Ev:0000000000000000 $d
     /tmp/cc6RUpyr.s:26     .text._ZN3AppC2Ev:0000000000000000 _ZN3AppC1Ev
     /tmp/cc6RUpyr.s:53     .text._ZN3App5setupEv:0000000000000000 $t
     /tmp/cc6RUpyr.s:60     .text._ZN3App5setupEv:0000000000000000 _ZN3App5setupEv
  .ARM.exidx.text._ZN3App5setupEv:0000000000000000 $d
     /tmp/cc6RUpyr.s:77     .text._ZN3App9led_blinkEv:0000000000000000 $t
     /tmp/cc6RUpyr.s:84     .text._ZN3App9led_blinkEv:0000000000000000 _ZN3App9led_blinkEv
.ARM.exidx.text._ZN3App9led_blinkEv:0000000000000000 $d
     /tmp/cc6RUpyr.s:134    .text._ZN3App4loopEv:0000000000000000 $t
     /tmp/cc6RUpyr.s:141    .text._ZN3App4loopEv:0000000000000000 _ZN3App4loopEv
   .ARM.extab.text._ZN3App4loopEv:0000000000000000 $d
   .ARM.exidx.text._ZN3App4loopEv:0000000000000000 $d

UNDEFINED SYMBOLS
HAL_GPIO_TogglePin
__aeabi_unwind_cpp_pr0
HAL_Delay
__aeabi_unwind_cpp_pr1
