ARM GAS  /tmp/ccGdjb3S.s 			page 1


   1              		.cpu cortex-m4
   2              		.eabi_attribute 27, 1
   3              		.eabi_attribute 28, 1
   4              		.eabi_attribute 20, 1
   5              		.eabi_attribute 21, 1
   6              		.eabi_attribute 23, 3
   7              		.eabi_attribute 24, 1
   8              		.eabi_attribute 25, 1
   9              		.eabi_attribute 26, 1
  10              		.eabi_attribute 30, 1
  11              		.eabi_attribute 34, 1
  12              		.eabi_attribute 18, 4
  13              		.file	"app.cpp"
  14              		.text
  15              	.Ltext0:
  16              		.cfi_sections	.debug_frame
  17              		.section	.rodata._ZN3App5setupEv.str1.4,"aMS",%progbits,1
  18              		.align	2
  19              	.LC0:
  20 0000 415400   		.ascii	"AT\000"
  21 0003 00       		.align	2
  22              	.LC1:
  23 0004 41542B56 		.ascii	"AT+VER?\000"
  23      45523F00 
  24              		.align	2
  25              	.LC2:
  26 000c 41542B46 		.ascii	"AT+FDEFAULT\000"
  26      44454641 
  26      554C5400 
  27              		.align	2
  28              	.LC3:
  29 0018 41542B4C 		.ascii	"AT+LW=VER,V103\000"
  29      573D5645 
  29      522C5631 
  29      303300
  30 0027 00       		.align	2
  31              	.LC4:
  32 0028 41542B44 		.ascii	"AT+DR=JP920\000"
  32      523D4A50 
  32      39323000 
  33              		.align	2
  34              	.LC5:
  35 0034 41542B43 		.ascii	"AT+CLASS=C\000"
  35      4C415353 
  35      3D4300
  36 003f 00       		.align	2
  37              	.LC6:
  38 0040 41542B4D 		.ascii	"AT+MODE=TEST\000"
  38      4F44453D 
  38      54455354 
  38      00
  39 004d 000000   		.align	2
  40              	.LC7:
  41 0050 41542B49 		.ascii	"AT+ID=DevEui\000"
  41      443D4465 
  41      76457569 
  41      00
ARM GAS  /tmp/ccGdjb3S.s 			page 2


  42 005d 000000   		.align	2
  43              	.LC8:
  44 0060 41542B49 		.ascii	"AT+ID=AppEui\000"
  44      443D4170 
  44      70457569 
  44      00
  45 006d 000000   		.align	2
  46              	.LC9:
  47 0070 41542B54 		.ascii	"AT+TEST=RFCFG,923,SF12,125,12,15,14,ON,OFF,OFF\000"
  47      4553543D 
  47      52464346 
  47      472C3932 
  47      332C5346 
  48              		.section	.text._ZN3App5setupEv,"ax",%progbits
  49              		.align	1
  50              		.global	_ZN3App5setupEv
  51              		.arch armv7e-m
  52              		.syntax unified
  53              		.thumb
  54              		.thumb_func
  55              		.fpu fpv4-sp-d16
  57              	_ZN3App5setupEv:
  58              		.fnstart
  59              	.LVL0:
  60              	.LFB1495:
  61              		.file 1 "App/Src/app.cpp"
   1:App/Src/app.cpp **** #include "app.hpp"
   2:App/Src/app.cpp **** #include "gpio.h"
   3:App/Src/app.cpp **** 
   4:App/Src/app.cpp **** void App::setup()
   5:App/Src/app.cpp **** {
  62              		.loc 1 5 1 view -0
  63              		.cfi_startproc
  64              		@ args = 0, pretend = 0, frame = 0
  65              		@ frame_needed = 0, uses_anonymous_args = 0
  66              		.loc 1 5 1 is_stmt 0 view .LVU1
  67 0000 10B5     		push	{r4, lr}
  68              		.save {r4, lr}
  69              	.LCFI0:
  70              		.cfi_def_cfa_offset 8
  71              		.cfi_offset 4, -8
  72              		.cfi_offset 14, -4
  73 0002 0446     		mov	r4, r0
   6:App/Src/app.cpp ****     // Wio E5 モジュールの初期化
   7:App/Src/app.cpp ****     wioE5.sendAT("AT");
  74              		.loc 1 7 5 is_stmt 1 view .LVU2
  75              		.loc 1 7 17 is_stmt 0 view .LVU3
  76 0004 1349     		ldr	r1, .L3
  77 0006 FFF7FEFF 		bl	_ZN5WioE56sendATEPKc
  78              	.LVL1:
   8:App/Src/app.cpp ****     wioE5.sendAT("AT+VER?");
  79              		.loc 1 8 5 is_stmt 1 view .LVU4
  80              		.loc 1 8 17 is_stmt 0 view .LVU5
  81 000a 1349     		ldr	r1, .L3+4
  82 000c 2046     		mov	r0, r4
  83 000e FFF7FEFF 		bl	_ZN5WioE56sendATEPKc
  84              	.LVL2:
ARM GAS  /tmp/ccGdjb3S.s 			page 3


   9:App/Src/app.cpp ****     wioE5.sendAT("AT+FDEFAULT");
  85              		.loc 1 9 5 is_stmt 1 view .LVU6
  86              		.loc 1 9 17 is_stmt 0 view .LVU7
  87 0012 1249     		ldr	r1, .L3+8
  88 0014 2046     		mov	r0, r4
  89 0016 FFF7FEFF 		bl	_ZN5WioE56sendATEPKc
  90              	.LVL3:
  10:App/Src/app.cpp ****     wioE5.sendAT("AT+LW=VER,V103");
  91              		.loc 1 10 5 is_stmt 1 view .LVU8
  92              		.loc 1 10 17 is_stmt 0 view .LVU9
  93 001a 1149     		ldr	r1, .L3+12
  94 001c 2046     		mov	r0, r4
  95 001e FFF7FEFF 		bl	_ZN5WioE56sendATEPKc
  96              	.LVL4:
  11:App/Src/app.cpp ****     wioE5.sendAT("AT+DR=JP920");
  97              		.loc 1 11 5 is_stmt 1 view .LVU10
  98              		.loc 1 11 17 is_stmt 0 view .LVU11
  99 0022 1049     		ldr	r1, .L3+16
 100 0024 2046     		mov	r0, r4
 101 0026 FFF7FEFF 		bl	_ZN5WioE56sendATEPKc
 102              	.LVL5:
  12:App/Src/app.cpp ****     wioE5.sendAT("AT+CLASS=C");
 103              		.loc 1 12 5 is_stmt 1 view .LVU12
 104              		.loc 1 12 17 is_stmt 0 view .LVU13
 105 002a 0F49     		ldr	r1, .L3+20
 106 002c 2046     		mov	r0, r4
 107 002e FFF7FEFF 		bl	_ZN5WioE56sendATEPKc
 108              	.LVL6:
  13:App/Src/app.cpp ****     wioE5.sendAT("AT+MODE=TEST");
 109              		.loc 1 13 5 is_stmt 1 view .LVU14
 110              		.loc 1 13 17 is_stmt 0 view .LVU15
 111 0032 0E49     		ldr	r1, .L3+24
 112 0034 2046     		mov	r0, r4
 113 0036 FFF7FEFF 		bl	_ZN5WioE56sendATEPKc
 114              	.LVL7:
  14:App/Src/app.cpp ****     wioE5.sendAT("AT+ID=DevEui");
 115              		.loc 1 14 5 is_stmt 1 view .LVU16
 116              		.loc 1 14 17 is_stmt 0 view .LVU17
 117 003a 0D49     		ldr	r1, .L3+28
 118 003c 2046     		mov	r0, r4
 119 003e FFF7FEFF 		bl	_ZN5WioE56sendATEPKc
 120              	.LVL8:
  15:App/Src/app.cpp ****     wioE5.sendAT("AT+ID=AppEui");
 121              		.loc 1 15 5 is_stmt 1 view .LVU18
 122              		.loc 1 15 17 is_stmt 0 view .LVU19
 123 0042 0C49     		ldr	r1, .L3+32
 124 0044 2046     		mov	r0, r4
 125 0046 FFF7FEFF 		bl	_ZN5WioE56sendATEPKc
 126              	.LVL9:
  16:App/Src/app.cpp ****     wioE5.sendAT("AT+TEST=RFCFG,923,SF12,125,12,15,14,ON,OFF,OFF");
 127              		.loc 1 16 5 is_stmt 1 view .LVU20
 128              		.loc 1 16 17 is_stmt 0 view .LVU21
 129 004a 0B49     		ldr	r1, .L3+36
 130 004c 2046     		mov	r0, r4
 131 004e FFF7FEFF 		bl	_ZN5WioE56sendATEPKc
 132              	.LVL10:
  17:App/Src/app.cpp **** }
ARM GAS  /tmp/ccGdjb3S.s 			page 4


 133              		.loc 1 17 1 view .LVU22
 134 0052 10BD     		pop	{r4, pc}
 135              	.LVL11:
 136              	.L4:
 137              		.loc 1 17 1 view .LVU23
 138              		.align	2
 139              	.L3:
 140 0054 00000000 		.word	.LC0
 141 0058 04000000 		.word	.LC1
 142 005c 0C000000 		.word	.LC2
 143 0060 18000000 		.word	.LC3
 144 0064 28000000 		.word	.LC4
 145 0068 34000000 		.word	.LC5
 146 006c 40000000 		.word	.LC6
 147 0070 50000000 		.word	.LC7
 148 0074 60000000 		.word	.LC8
 149 0078 70000000 		.word	.LC9
 150              		.cfi_endproc
 151              	.LFE1495:
 152              		.fnend
 154              		.section	.rodata._ZN3App4loopEv.str1.4,"aMS",%progbits,1
 155              		.align	2
 156              	.LC10:
 157 0000 41542B54 		.ascii	"AT+TEST=TXLRPKT,\"8152743601\"\000"
 157      4553543D 
 157      54584C52 
 157      504B542C 
 157      22383135 
 158 001d 000000   		.align	2
 159              	.LC11:
 160 0020 41542B54 		.ascii	"AT+TEST=TXLRPKT,\"8152743600\"\000"
 160      4553543D 
 160      54584C52 
 160      504B542C 
 160      22383135 
 161              		.section	.text._ZN3App4loopEv,"ax",%progbits
 162              		.align	1
 163              		.global	_ZN3App4loopEv
 164              		.syntax unified
 165              		.thumb
 166              		.thumb_func
 167              		.fpu fpv4-sp-d16
 169              	_ZN3App4loopEv:
 170              		.fnstart
 171              	.LVL12:
 172              	.LFB1496:
  18:App/Src/app.cpp **** 
  19:App/Src/app.cpp **** void App::loop()
  20:App/Src/app.cpp **** {
 173              		.loc 1 20 1 is_stmt 1 view -0
 174              		.cfi_startproc
 175              		@ args = 0, pretend = 0, frame = 0
 176              		@ frame_needed = 0, uses_anonymous_args = 0
 177              		.loc 1 20 1 is_stmt 0 view .LVU25
 178 0000 38B5     		push	{r3, r4, r5, lr}
 179              		.save {r3, r4, r5, lr}
 180              	.LCFI1:
ARM GAS  /tmp/ccGdjb3S.s 			page 5


 181              		.cfi_def_cfa_offset 16
 182              		.cfi_offset 3, -16
 183              		.cfi_offset 4, -12
 184              		.cfi_offset 5, -8
 185              		.cfi_offset 14, -4
 186 0002 0446     		mov	r4, r0
  21:App/Src/app.cpp ****     GPIO_PinState state = HAL_GPIO_ReadPin(GPIOA, emstop_Pin);
 187              		.loc 1 21 5 is_stmt 1 view .LVU26
 188              		.loc 1 21 43 is_stmt 0 view .LVU27
 189 0004 0221     		movs	r1, #2
 190 0006 4FF09040 		mov	r0, #1207959552
 191              	.LVL13:
 192              		.loc 1 21 43 view .LVU28
 193 000a FFF7FEFF 		bl	HAL_GPIO_ReadPin
 194              	.LVL14:
 195 000e 0546     		mov	r5, r0
 196              	.LVL15:
  22:App/Src/app.cpp **** 
  23:App/Src/app.cpp ****     // 1秒ごとの AT コマンド送信（重複防止）
  24:App/Src/app.cpp ****     static uint32_t lastSendTick = 0;
 197              		.loc 1 24 5 is_stmt 1 view .LVU29
  25:App/Src/app.cpp ****     uint32_t now = HAL_GetTick();
 198              		.loc 1 25 5 view .LVU30
 199              		.loc 1 25 31 is_stmt 0 view .LVU31
 200 0010 FFF7FEFF 		bl	HAL_GetTick
 201              	.LVL16:
  26:App/Src/app.cpp **** 
  27:App/Src/app.cpp ****     if (now - lastSendTick >= 1500) // 1000ms = 1秒
 202              		.loc 1 27 5 is_stmt 1 view .LVU32
 203              		.loc 1 27 13 is_stmt 0 view .LVU33
 204 0014 0C4A     		ldr	r2, .L10
 205 0016 1268     		ldr	r2, [r2]
 206 0018 821A     		subs	r2, r0, r2
 207              		.loc 1 27 5 view .LVU34
 208 001a 40F2DB51 		movw	r1, #1499
 209 001e 8A42     		cmp	r2, r1
 210 0020 09D9     		bls	.L5
  28:App/Src/app.cpp ****     {
  29:App/Src/app.cpp ****         lastSendTick = now; // 先に更新して重複送信を防止
 211              		.loc 1 29 9 is_stmt 1 view .LVU35
 212              		.loc 1 29 22 is_stmt 0 view .LVU36
 213 0022 094A     		ldr	r2, .L10
 214 0024 1060     		str	r0, [r2]
  30:App/Src/app.cpp ****         if (state == GPIO_PIN_SET)
 215              		.loc 1 30 9 is_stmt 1 view .LVU37
 216 0026 012D     		cmp	r5, #1
 217 0028 06D0     		beq	.L9
  31:App/Src/app.cpp ****         {
  32:App/Src/app.cpp ****             wioE5.sendAT("AT+TEST=TXLRPKT,\"8152743601\"");
  33:App/Src/app.cpp ****             operation = 1;
  34:App/Src/app.cpp ****         }
  35:App/Src/app.cpp ****         else
  36:App/Src/app.cpp ****         {
  37:App/Src/app.cpp ****             wioE5.sendAT("AT+TEST=TXLRPKT,\"8152743600\"");
 218              		.loc 1 37 13 view .LVU38
 219              		.loc 1 37 25 is_stmt 0 view .LVU39
 220 002a 0849     		ldr	r1, .L10+4
ARM GAS  /tmp/ccGdjb3S.s 			page 6


 221 002c 2046     		mov	r0, r4
 222              	.LVL17:
 223              		.loc 1 37 25 view .LVU40
 224 002e FFF7FEFF 		bl	_ZN5WioE56sendATEPKc
 225              	.LVL18:
  38:App/Src/app.cpp ****             operation = 0;
 226              		.loc 1 38 13 is_stmt 1 view .LVU41
 227              		.loc 1 38 23 is_stmt 0 view .LVU42
 228 0032 0023     		movs	r3, #0
 229 0034 6360     		str	r3, [r4, #4]
 230              	.L5:
  39:App/Src/app.cpp ****         }
  40:App/Src/app.cpp ****     }
  41:App/Src/app.cpp **** }
 231              		.loc 1 41 1 view .LVU43
 232 0036 38BD     		pop	{r3, r4, r5, pc}
 233              	.LVL19:
 234              	.L9:
  32:App/Src/app.cpp ****             operation = 1;
 235              		.loc 1 32 13 is_stmt 1 view .LVU44
  32:App/Src/app.cpp ****             operation = 1;
 236              		.loc 1 32 25 is_stmt 0 view .LVU45
 237 0038 0549     		ldr	r1, .L10+8
 238 003a 2046     		mov	r0, r4
 239              	.LVL20:
  32:App/Src/app.cpp ****             operation = 1;
 240              		.loc 1 32 25 view .LVU46
 241 003c FFF7FEFF 		bl	_ZN5WioE56sendATEPKc
 242              	.LVL21:
  33:App/Src/app.cpp ****         }
 243              		.loc 1 33 13 is_stmt 1 view .LVU47
  33:App/Src/app.cpp ****         }
 244              		.loc 1 33 23 is_stmt 0 view .LVU48
 245 0040 0123     		movs	r3, #1
 246 0042 6360     		str	r3, [r4, #4]
 247 0044 F7E7     		b	.L5
 248              	.L11:
 249 0046 00BF     		.align	2
 250              	.L10:
 251 0048 00000000 		.word	.LANCHOR0
 252 004c 20000000 		.word	.LC11
 253 0050 00000000 		.word	.LC10
 254              		.cfi_endproc
 255              	.LFE1496:
 256              		.fnend
 258              		.section	.bss._ZZN3App4loopEvE12lastSendTick,"aw",%nobits
 259              		.align	2
 260              		.set	.LANCHOR0,. + 0
 263              	_ZZN3App4loopEvE12lastSendTick:
 264 0000 00000000 		.space	4
 265              		.text
 266              	.Letext0:
 267              		.file 2 "/usr/lib/gcc/arm-none-eabi/10.3.1/include/stdint.h"
 268              		.file 3 "Drivers/CMSIS/Device/ST/STM32F3xx/Include/stm32f303x8.h"
 269              		.file 4 "/usr/lib/gcc/arm-none-eabi/10.3.1/include/stddef.h"
 270              		.file 5 "Drivers/STM32F3xx_HAL_Driver/Inc/stm32f3xx_hal_gpio.h"
 271              		.file 6 "/usr/include/newlib/c++/10.3.1/type_traits"
ARM GAS  /tmp/ccGdjb3S.s 			page 7


 272              		.file 7 "/usr/include/newlib/c++/10.3.1/debug/debug.h"
 273              		.file 8 "/usr/include/newlib/c++/10.3.1/cwchar"
 274              		.file 9 "/usr/include/newlib/c++/10.3.1/cstdint"
 275              		.file 10 "/usr/include/newlib/c++/10.3.1/bits/exception_ptr.h"
 276              		.file 11 "/usr/include/newlib/c++/10.3.1/bits/stl_pair.h"
 277              		.file 12 "/usr/include/newlib/c++/10.3.1/arm-none-eabi/thumb/v7e-m+fp/hard/bits/c++config.h"
 278              		.file 13 "/usr/include/newlib/c++/10.3.1/clocale"
 279              		.file 14 "/usr/include/newlib/c++/10.3.1/cstdlib"
 280              		.file 15 "/usr/include/newlib/c++/10.3.1/cstdio"
 281              		.file 16 "/usr/include/newlib/c++/10.3.1/bits/basic_string.h"
 282              		.file 17 "/usr/include/newlib/c++/10.3.1/bits/predefined_ops.h"
 283              		.file 18 "/usr/include/newlib/sys/_types.h"
 284              		.file 19 "/usr/include/newlib/sys/reent.h"
 285              		.file 20 "/usr/include/newlib/sys/lock.h"
 286              		.file 21 "/usr/lib/gcc/arm-none-eabi/10.3.1/include/stdarg.h"
 287              		.file 22 "/usr/include/newlib/wchar.h"
 288              		.file 23 "/usr/include/newlib/locale.h"
 289              		.file 24 "/usr/include/newlib/stdlib.h"
 290              		.file 25 "/usr/include/newlib/stdio.h"
 291              		.file 26 "App/Inc/WioE5.hpp"
 292              		.file 27 "App/Inc/app.hpp"
 293              		.file 28 "Drivers/STM32F3xx_HAL_Driver/Inc/stm32f3xx_hal.h"
 294              		.file 29 "<built-in>"
ARM GAS  /tmp/ccGdjb3S.s 			page 8


DEFINED SYMBOLS
                            *ABS*:0000000000000000 app.cpp
     /tmp/ccGdjb3S.s:18     .rodata._ZN3App5setupEv.str1.4:0000000000000000 $d
     /tmp/ccGdjb3S.s:49     .text._ZN3App5setupEv:0000000000000000 $t
     /tmp/ccGdjb3S.s:57     .text._ZN3App5setupEv:0000000000000000 _ZN3App5setupEv
     /tmp/ccGdjb3S.s:140    .text._ZN3App5setupEv:0000000000000054 $d
  .ARM.exidx.text._ZN3App5setupEv:0000000000000000 $d
     /tmp/ccGdjb3S.s:155    .rodata._ZN3App4loopEv.str1.4:0000000000000000 $d
     /tmp/ccGdjb3S.s:162    .text._ZN3App4loopEv:0000000000000000 $t
     /tmp/ccGdjb3S.s:169    .text._ZN3App4loopEv:0000000000000000 _ZN3App4loopEv
     /tmp/ccGdjb3S.s:251    .text._ZN3App4loopEv:0000000000000048 $d
   .ARM.exidx.text._ZN3App4loopEv:0000000000000000 $d
     /tmp/ccGdjb3S.s:259    .bss._ZZN3App4loopEvE12lastSendTick:0000000000000000 $d
     /tmp/ccGdjb3S.s:263    .bss._ZZN3App4loopEvE12lastSendTick:0000000000000000 _ZZN3App4loopEvE12lastSendTick

UNDEFINED SYMBOLS
_ZN5WioE56sendATEPKc
__aeabi_unwind_cpp_pr0
HAL_GPIO_ReadPin
HAL_GetTick
