ARM GAS  /tmp/ccRLs6kU.s 			page 1


   1              		.cpu cortex-m4
   2              		.eabi_attribute 27, 1
   3              		.eabi_attribute 28, 1
   4              		.eabi_attribute 20, 1
   5              		.eabi_attribute 21, 1
   6              		.eabi_attribute 23, 3
   7              		.eabi_attribute 24, 1
   8              		.eabi_attribute 25, 1
   9              		.eabi_attribute 26, 1
  10              		.eabi_attribute 30, 1
  11              		.eabi_attribute 34, 1
  12              		.eabi_attribute 18, 4
  13              		.file	"readWioE5.cpp"
  14              		.text
  15              	.Ltext0:
  16              		.cfi_sections	.debug_frame
  17              		.section	.text.HAL_UART_RxCpltCallback,"ax",%progbits
  18              		.align	1
  19              		.global	HAL_UART_RxCpltCallback
  20              		.arch armv7e-m
  21              		.syntax unified
  22              		.thumb
  23              		.thumb_func
  24              		.fpu fpv4-sp-d16
  26              	HAL_UART_RxCpltCallback:
  27              		.fnstart
  28              	.LVL0:
  29              	.LFB1500:
  30              		.file 1 "App/Src/readWioE5.cpp"
   1:App/Src/readWioE5.cpp **** #include "readWioE5.hpp"
   2:App/Src/readWioE5.cpp **** #include "gpio.h"
   3:App/Src/readWioE5.cpp **** #include "usart.h"
   4:App/Src/readWioE5.cpp **** #include "stm32f3xx_hal.h"
   5:App/Src/readWioE5.cpp **** #include "stm32f303x8.h"
   6:App/Src/readWioE5.cpp **** #include <cstring>
   7:App/Src/readWioE5.cpp **** 
   8:App/Src/readWioE5.cpp **** // 受信バッファ
   9:App/Src/readWioE5.cpp **** uint8_t rx_byte;
  10:App/Src/readWioE5.cpp **** char rxBuffer[128];
  11:App/Src/readWioE5.cpp **** uint16_t rxIndex = 0;
  12:App/Src/readWioE5.cpp **** volatile bool rxReady = false;
  13:App/Src/readWioE5.cpp **** 
  14:App/Src/readWioE5.cpp **** extern "C" void HAL_UART_RxCpltCallback(UART_HandleTypeDef *huart)
  15:App/Src/readWioE5.cpp **** {
  31              		.loc 1 15 1 view -0
  32              		.cfi_startproc
  33              		@ args = 0, pretend = 0, frame = 0
  34              		@ frame_needed = 0, uses_anonymous_args = 0
  35              		.loc 1 15 1 is_stmt 0 view .LVU1
  36 0000 08B5     		push	{r3, lr}
  37              		.save {r3, lr}
  38              	.LCFI0:
  39              		.cfi_def_cfa_offset 8
  40              		.cfi_offset 3, -8
  41              		.cfi_offset 14, -4
  16:App/Src/readWioE5.cpp ****     if (huart->Instance == USART2)
  42              		.loc 1 16 5 is_stmt 1 view .LVU2
ARM GAS  /tmp/ccRLs6kU.s 			page 2


  43              		.loc 1 16 16 is_stmt 0 view .LVU3
  44 0002 0268     		ldr	r2, [r0]
  45              		.loc 1 16 5 view .LVU4
  46 0004 104B     		ldr	r3, .L8
  47 0006 9A42     		cmp	r2, r3
  48 0008 00D0     		beq	.L6
  49              	.LVL1:
  50              	.L1:
  17:App/Src/readWioE5.cpp ****     {
  18:App/Src/readWioE5.cpp ****         if (rx_byte == '\n') // 改行で1行終わり
  19:App/Src/readWioE5.cpp ****         {
  20:App/Src/readWioE5.cpp ****             rxBuffer[rxIndex] = '\0';
  21:App/Src/readWioE5.cpp ****             rxReady = true;
  22:App/Src/readWioE5.cpp ****             rxIndex = 0;
  23:App/Src/readWioE5.cpp ****         }
  24:App/Src/readWioE5.cpp ****         else
  25:App/Src/readWioE5.cpp ****         {
  26:App/Src/readWioE5.cpp ****             if (rxIndex < sizeof(rxBuffer) - 1)
  27:App/Src/readWioE5.cpp ****             {
  28:App/Src/readWioE5.cpp ****                 rxBuffer[rxIndex++] = rx_byte;
  29:App/Src/readWioE5.cpp ****             }
  30:App/Src/readWioE5.cpp ****         }
  31:App/Src/readWioE5.cpp ****         // 次の受信をセット
  32:App/Src/readWioE5.cpp ****         HAL_UART_Receive_IT(&huart2, &rx_byte, 1);
  33:App/Src/readWioE5.cpp ****     }
  34:App/Src/readWioE5.cpp **** }
  51              		.loc 1 34 1 view .LVU5
  52 000a 08BD     		pop	{r3, pc}
  53              	.LVL2:
  54              	.L6:
  18:App/Src/readWioE5.cpp ****         {
  55              		.loc 1 18 9 is_stmt 1 view .LVU6
  18:App/Src/readWioE5.cpp ****         {
  56              		.loc 1 18 21 is_stmt 0 view .LVU7
  57 000c 0F4B     		ldr	r3, .L8+4
  58 000e 1B78     		ldrb	r3, [r3]	@ zero_extendqisi2
  18:App/Src/readWioE5.cpp ****         {
  59              		.loc 1 18 9 view .LVU8
  60 0010 0A2B     		cmp	r3, #10
  61 0012 09D0     		beq	.L7
  26:App/Src/readWioE5.cpp ****             {
  62              		.loc 1 26 13 is_stmt 1 view .LVU9
  26:App/Src/readWioE5.cpp ****             {
  63              		.loc 1 26 25 is_stmt 0 view .LVU10
  64 0014 0E4A     		ldr	r2, .L8+8
  65 0016 1288     		ldrh	r2, [r2]
  26:App/Src/readWioE5.cpp ****             {
  66              		.loc 1 26 13 view .LVU11
  67 0018 7E2A     		cmp	r2, #126
  68 001a 0ED8     		bhi	.L4
  28:App/Src/readWioE5.cpp ****             }
  69              		.loc 1 28 17 is_stmt 1 view .LVU12
  28:App/Src/readWioE5.cpp ****             }
  70              		.loc 1 28 33 is_stmt 0 view .LVU13
  71 001c 501C     		adds	r0, r2, #1
  72              	.LVL3:
  28:App/Src/readWioE5.cpp ****             }
ARM GAS  /tmp/ccRLs6kU.s 			page 3


  73              		.loc 1 28 33 view .LVU14
  74 001e 0C49     		ldr	r1, .L8+8
  75 0020 0880     		strh	r0, [r1]	@ movhi
  28:App/Src/readWioE5.cpp ****             }
  76              		.loc 1 28 37 view .LVU15
  77 0022 0C49     		ldr	r1, .L8+12
  78 0024 8B54     		strb	r3, [r1, r2]
  79 0026 08E0     		b	.L4
  80              	.LVL4:
  81              	.L7:
  20:App/Src/readWioE5.cpp ****             rxReady = true;
  82              		.loc 1 20 13 is_stmt 1 view .LVU16
  20:App/Src/readWioE5.cpp ****             rxReady = true;
  83              		.loc 1 20 22 is_stmt 0 view .LVU17
  84 0028 094B     		ldr	r3, .L8+8
  85 002a 1988     		ldrh	r1, [r3]
  20:App/Src/readWioE5.cpp ****             rxReady = true;
  86              		.loc 1 20 31 view .LVU18
  87 002c 0022     		movs	r2, #0
  88 002e 0948     		ldr	r0, .L8+12
  89              	.LVL5:
  20:App/Src/readWioE5.cpp ****             rxReady = true;
  90              		.loc 1 20 31 view .LVU19
  91 0030 4254     		strb	r2, [r0, r1]
  21:App/Src/readWioE5.cpp ****             rxIndex = 0;
  92              		.loc 1 21 13 is_stmt 1 view .LVU20
  21:App/Src/readWioE5.cpp ****             rxIndex = 0;
  93              		.loc 1 21 21 is_stmt 0 view .LVU21
  94 0032 0949     		ldr	r1, .L8+16
  95 0034 0120     		movs	r0, #1
  96 0036 0870     		strb	r0, [r1]
  22:App/Src/readWioE5.cpp ****         }
  97              		.loc 1 22 13 is_stmt 1 view .LVU22
  22:App/Src/readWioE5.cpp ****         }
  98              		.loc 1 22 21 is_stmt 0 view .LVU23
  99 0038 1A80     		strh	r2, [r3]	@ movhi
 100              	.L4:
  32:App/Src/readWioE5.cpp ****     }
 101              		.loc 1 32 9 is_stmt 1 view .LVU24
  32:App/Src/readWioE5.cpp ****     }
 102              		.loc 1 32 28 is_stmt 0 view .LVU25
 103 003a 0122     		movs	r2, #1
 104 003c 0349     		ldr	r1, .L8+4
 105 003e 0748     		ldr	r0, .L8+20
 106 0040 FFF7FEFF 		bl	HAL_UART_Receive_IT
 107              	.LVL6:
 108              		.loc 1 34 1 view .LVU26
 109 0044 E1E7     		b	.L1
 110              	.L9:
 111 0046 00BF     		.align	2
 112              	.L8:
 113 0048 00440040 		.word	1073759232
 114 004c 00000000 		.word	.LANCHOR0
 115 0050 00000000 		.word	.LANCHOR1
 116 0054 00000000 		.word	.LANCHOR2
 117 0058 00000000 		.word	.LANCHOR3
 118 005c 00000000 		.word	huart2
ARM GAS  /tmp/ccRLs6kU.s 			page 4


 119              		.cfi_endproc
 120              	.LFE1500:
 121              		.fnend
 123              		.section	.text._ZN9ReadWioE5C2Ev,"ax",%progbits
 124              		.align	1
 125              		.global	_ZN9ReadWioE5C2Ev
 126              		.syntax unified
 127              		.thumb
 128              		.thumb_func
 129              		.fpu fpv4-sp-d16
 131              	_ZN9ReadWioE5C2Ev:
 132              		.fnstart
 133              	.LVL7:
 134              	.LFB1502:
  35:App/Src/readWioE5.cpp **** 
  36:App/Src/readWioE5.cpp **** ReadWioE5::ReadWioE5(/* args */)
 135              		.loc 1 36 1 is_stmt 1 view -0
 136              		.cfi_startproc
 137              		@ args = 0, pretend = 0, frame = 0
 138              		@ frame_needed = 0, uses_anonymous_args = 0
 139              		.loc 1 36 1 is_stmt 0 view .LVU28
 140 0000 10B5     		push	{r4, lr}
 141              		.save {r4, lr}
 142              	.LCFI1:
 143              		.cfi_def_cfa_offset 8
 144              		.cfi_offset 4, -8
 145              		.cfi_offset 14, -4
 146 0002 0446     		mov	r4, r0
 147              	.LBB339:
  37:App/Src/readWioE5.cpp **** {
  38:App/Src/readWioE5.cpp ****     HAL_UART_Receive_IT(&huart2, &rx_byte, 1);
 148              		.loc 1 38 5 is_stmt 1 view .LVU29
 149              		.loc 1 38 24 is_stmt 0 view .LVU30
 150 0004 0122     		movs	r2, #1
 151 0006 0349     		ldr	r1, .L12
 152 0008 0348     		ldr	r0, .L12+4
 153              	.LVL8:
 154              		.loc 1 38 24 view .LVU31
 155 000a FFF7FEFF 		bl	HAL_UART_Receive_IT
 156              	.LVL9:
 157              	.LBE339:
  39:App/Src/readWioE5.cpp **** }
 158              		.loc 1 39 1 view .LVU32
 159 000e 2046     		mov	r0, r4
 160 0010 10BD     		pop	{r4, pc}
 161              	.LVL10:
 162              	.L13:
 163              		.loc 1 39 1 view .LVU33
 164 0012 00BF     		.align	2
 165              	.L12:
 166 0014 00000000 		.word	.LANCHOR0
 167 0018 00000000 		.word	huart2
 168              		.cfi_endproc
 169              	.LFE1502:
 170              		.fnend
 172              		.global	_ZN9ReadWioE5C1Ev
 173              		.thumb_set _ZN9ReadWioE5C1Ev,_ZN9ReadWioE5C2Ev
ARM GAS  /tmp/ccRLs6kU.s 			page 5


 174              		.section	.rodata._ZN9ReadWioE56sendATEPKc.str1.4,"aMS",%progbits,1
 175              		.align	2
 176              	.LC0:
 177 0000 25730D0A 		.ascii	"%s\015\012\000"
 177      00
 178              		.section	.text._ZN9ReadWioE56sendATEPKc,"ax",%progbits
 179              		.align	1
 180              		.global	_ZN9ReadWioE56sendATEPKc
 181              		.syntax unified
 182              		.thumb
 183              		.thumb_func
 184              		.fpu fpv4-sp-d16
 186              	_ZN9ReadWioE56sendATEPKc:
 187              		.fnstart
 188              	.LVL11:
 189              	.LFB1506:
  40:App/Src/readWioE5.cpp **** 
  41:App/Src/readWioE5.cpp **** void ReadWioE5::setup()
  42:App/Src/readWioE5.cpp **** {
  43:App/Src/readWioE5.cpp ****     // 初期化コード
  44:App/Src/readWioE5.cpp ****     serial_printf("ReadWioE5 setup complete.\n");
  45:App/Src/readWioE5.cpp **** }
  46:App/Src/readWioE5.cpp **** 
  47:App/Src/readWioE5.cpp **** void ReadWioE5::loop()
  48:App/Src/readWioE5.cpp **** {
  49:App/Src/readWioE5.cpp ****     if (rxReady)
  50:App/Src/readWioE5.cpp ****     {
  51:App/Src/readWioE5.cpp ****         serial_printf("WioE5: %s\n", rxBuffer);
  52:App/Src/readWioE5.cpp ****         rxReady = false;
  53:App/Src/readWioE5.cpp ****     }
  54:App/Src/readWioE5.cpp **** }
  55:App/Src/readWioE5.cpp **** 
  56:App/Src/readWioE5.cpp **** void ReadWioE5::sendAT(const char *cmd)
  57:App/Src/readWioE5.cpp **** {
 190              		.loc 1 57 1 is_stmt 1 view -0
 191              		.cfi_startproc
 192              		@ args = 0, pretend = 0, frame = 64
 193              		@ frame_needed = 0, uses_anonymous_args = 0
 194              		.loc 1 57 1 is_stmt 0 view .LVU35
 195 0000 00B5     		push	{lr}
 196              		.save {lr}
 197              	.LCFI2:
 198              		.cfi_def_cfa_offset 4
 199              		.cfi_offset 14, -4
 200              		.pad #68
 201 0002 91B0     		sub	sp, sp, #68
 202              	.LCFI3:
 203              		.cfi_def_cfa_offset 72
 204 0004 0B46     		mov	r3, r1
  58:App/Src/readWioE5.cpp ****     char buffer[64];
 205              		.loc 1 58 5 is_stmt 1 view .LVU36
  59:App/Src/readWioE5.cpp ****     snprintf(buffer, sizeof(buffer), "%s\r\n", cmd);
 206              		.loc 1 59 5 view .LVU37
 207              		.loc 1 59 13 is_stmt 0 view .LVU38
 208 0006 084A     		ldr	r2, .L16
 209 0008 4021     		movs	r1, #64
 210              	.LVL12:
ARM GAS  /tmp/ccRLs6kU.s 			page 6


 211              		.loc 1 59 13 view .LVU39
 212 000a 6846     		mov	r0, sp
 213              	.LVL13:
 214              		.loc 1 59 13 view .LVU40
 215 000c FFF7FEFF 		bl	snprintf
 216              	.LVL14:
  60:App/Src/readWioE5.cpp ****     HAL_UART_Transmit(&huart2, (uint8_t *)buffer, strlen(buffer), 100);
 217              		.loc 1 60 5 is_stmt 1 view .LVU41
 218              		.loc 1 60 57 is_stmt 0 view .LVU42
 219 0010 6846     		mov	r0, sp
 220 0012 FFF7FEFF 		bl	strlen
 221              	.LVL15:
 222              		.loc 1 60 22 view .LVU43
 223 0016 6423     		movs	r3, #100
 224 0018 82B2     		uxth	r2, r0
 225 001a 6946     		mov	r1, sp
 226 001c 0348     		ldr	r0, .L16+4
 227 001e FFF7FEFF 		bl	HAL_UART_Transmit
 228              	.LVL16:
  61:App/Src/readWioE5.cpp **** }
 229              		.loc 1 61 1 view .LVU44
 230 0022 11B0     		add	sp, sp, #68
 231              	.LCFI4:
 232              		.cfi_def_cfa_offset 4
 233              		@ sp needed
 234 0024 5DF804FB 		ldr	pc, [sp], #4
 235              	.L17:
 236              		.align	2
 237              	.L16:
 238 0028 00000000 		.word	.LC0
 239 002c 00000000 		.word	huart2
 240              		.cfi_endproc
 241              	.LFE1506:
 242              		.fnend
 244              		.section	.rodata._ZNSt7__cxx1112basic_stringIcSt11char_traitsIcESaIcEE12_M_constructIPKcEEvT_S8_St
 245              		.align	2
 246              	.LC1:
 247 0000 62617369 		.ascii	"basic_string::_M_construct null not valid\000"
 247      635F7374 
 247      72696E67 
 247      3A3A5F4D 
 247      5F636F6E 
 248              		.section	.text._ZNSt7__cxx1112basic_stringIcSt11char_traitsIcESaIcEE12_M_constructIPKcEEvT_S8_St20
 249              		.align	1
 250              		.weak	_ZNSt7__cxx1112basic_stringIcSt11char_traitsIcESaIcEE12_M_constructIPKcEEvT_S8_St20forward_i
 251              		.syntax unified
 252              		.thumb
 253              		.thumb_func
 254              		.fpu fpv4-sp-d16
 256              	_ZNSt7__cxx1112basic_stringIcSt11char_traitsIcESaIcEE12_M_constructIPKcEEvT_S8_St20forward_iterator
 257              		.fnstart
 258              	.LVL17:
 259              	.LFB1848:
 260              		.file 2 "/usr/include/newlib/c++/10.3.1/bits/basic_string.tcc"
   1:/usr/include/newlib/c++/10.3.1/bits/basic_string.tcc **** // Components for manipulating sequences of characters -*- C++ -*-
   2:/usr/include/newlib/c++/10.3.1/bits/basic_string.tcc **** 
   3:/usr/include/newlib/c++/10.3.1/bits/basic_string.tcc **** // Copyright (C) 1997-2020 Free Software Foundation, Inc.
ARM GAS  /tmp/ccRLs6kU.s 			page 7


   4:/usr/include/newlib/c++/10.3.1/bits/basic_string.tcc **** //
   5:/usr/include/newlib/c++/10.3.1/bits/basic_string.tcc **** // This file is part of the GNU ISO C++ Library.  This library is free
   6:/usr/include/newlib/c++/10.3.1/bits/basic_string.tcc **** // software; you can redistribute it and/or modify it under the
   7:/usr/include/newlib/c++/10.3.1/bits/basic_string.tcc **** // terms of the GNU General Public License as published by the
   8:/usr/include/newlib/c++/10.3.1/bits/basic_string.tcc **** // Free Software Foundation; either version 3, or (at your option)
   9:/usr/include/newlib/c++/10.3.1/bits/basic_string.tcc **** // any later version.
  10:/usr/include/newlib/c++/10.3.1/bits/basic_string.tcc **** 
  11:/usr/include/newlib/c++/10.3.1/bits/basic_string.tcc **** // This library is distributed in the hope that it will be useful,
  12:/usr/include/newlib/c++/10.3.1/bits/basic_string.tcc **** // but WITHOUT ANY WARRANTY; without even the implied warranty of
  13:/usr/include/newlib/c++/10.3.1/bits/basic_string.tcc **** // MERCHANTABILITY or FITNESS FOR A PARTICULAR PURPOSE.  See the
  14:/usr/include/newlib/c++/10.3.1/bits/basic_string.tcc **** // GNU General Public License for more details.
  15:/usr/include/newlib/c++/10.3.1/bits/basic_string.tcc **** 
  16:/usr/include/newlib/c++/10.3.1/bits/basic_string.tcc **** // Under Section 7 of GPL version 3, you are granted additional
  17:/usr/include/newlib/c++/10.3.1/bits/basic_string.tcc **** // permissions described in the GCC Runtime Library Exception, version
  18:/usr/include/newlib/c++/10.3.1/bits/basic_string.tcc **** // 3.1, as published by the Free Software Foundation.
  19:/usr/include/newlib/c++/10.3.1/bits/basic_string.tcc **** 
  20:/usr/include/newlib/c++/10.3.1/bits/basic_string.tcc **** // You should have received a copy of the GNU General Public License and
  21:/usr/include/newlib/c++/10.3.1/bits/basic_string.tcc **** // a copy of the GCC Runtime Library Exception along with this program;
  22:/usr/include/newlib/c++/10.3.1/bits/basic_string.tcc **** // see the files COPYING3 and COPYING.RUNTIME respectively.  If not, see
  23:/usr/include/newlib/c++/10.3.1/bits/basic_string.tcc **** // <http://www.gnu.org/licenses/>.
  24:/usr/include/newlib/c++/10.3.1/bits/basic_string.tcc **** 
  25:/usr/include/newlib/c++/10.3.1/bits/basic_string.tcc **** /** @file bits/basic_string.tcc
  26:/usr/include/newlib/c++/10.3.1/bits/basic_string.tcc ****  *  This is an internal header file, included by other library headers.
  27:/usr/include/newlib/c++/10.3.1/bits/basic_string.tcc ****  *  Do not attempt to use it directly. @headername{string}
  28:/usr/include/newlib/c++/10.3.1/bits/basic_string.tcc ****  */
  29:/usr/include/newlib/c++/10.3.1/bits/basic_string.tcc **** 
  30:/usr/include/newlib/c++/10.3.1/bits/basic_string.tcc **** //
  31:/usr/include/newlib/c++/10.3.1/bits/basic_string.tcc **** // ISO C++ 14882: 21  Strings library
  32:/usr/include/newlib/c++/10.3.1/bits/basic_string.tcc **** //
  33:/usr/include/newlib/c++/10.3.1/bits/basic_string.tcc **** 
  34:/usr/include/newlib/c++/10.3.1/bits/basic_string.tcc **** // Written by Jason Merrill based upon the specification by Takanori Adachi
  35:/usr/include/newlib/c++/10.3.1/bits/basic_string.tcc **** // in ANSI X3J16/94-0013R2.  Rewritten by Nathan Myers to ISO-14882.
  36:/usr/include/newlib/c++/10.3.1/bits/basic_string.tcc **** // Non-reference-counted implementation written by Paolo Carlini and
  37:/usr/include/newlib/c++/10.3.1/bits/basic_string.tcc **** // updated by Jonathan Wakely for ISO-14882-2011.
  38:/usr/include/newlib/c++/10.3.1/bits/basic_string.tcc **** 
  39:/usr/include/newlib/c++/10.3.1/bits/basic_string.tcc **** #ifndef _BASIC_STRING_TCC
  40:/usr/include/newlib/c++/10.3.1/bits/basic_string.tcc **** #define _BASIC_STRING_TCC 1
  41:/usr/include/newlib/c++/10.3.1/bits/basic_string.tcc **** 
  42:/usr/include/newlib/c++/10.3.1/bits/basic_string.tcc **** #pragma GCC system_header
  43:/usr/include/newlib/c++/10.3.1/bits/basic_string.tcc **** 
  44:/usr/include/newlib/c++/10.3.1/bits/basic_string.tcc **** #include <bits/cxxabi_forced.h>
  45:/usr/include/newlib/c++/10.3.1/bits/basic_string.tcc **** 
  46:/usr/include/newlib/c++/10.3.1/bits/basic_string.tcc **** namespace std _GLIBCXX_VISIBILITY(default)
  47:/usr/include/newlib/c++/10.3.1/bits/basic_string.tcc **** {
  48:/usr/include/newlib/c++/10.3.1/bits/basic_string.tcc **** _GLIBCXX_BEGIN_NAMESPACE_VERSION
  49:/usr/include/newlib/c++/10.3.1/bits/basic_string.tcc **** 
  50:/usr/include/newlib/c++/10.3.1/bits/basic_string.tcc **** #if _GLIBCXX_USE_CXX11_ABI
  51:/usr/include/newlib/c++/10.3.1/bits/basic_string.tcc **** 
  52:/usr/include/newlib/c++/10.3.1/bits/basic_string.tcc ****   template<typename _CharT, typename _Traits, typename _Alloc>
  53:/usr/include/newlib/c++/10.3.1/bits/basic_string.tcc ****     const typename basic_string<_CharT, _Traits, _Alloc>::size_type
  54:/usr/include/newlib/c++/10.3.1/bits/basic_string.tcc ****     basic_string<_CharT, _Traits, _Alloc>::npos;
  55:/usr/include/newlib/c++/10.3.1/bits/basic_string.tcc **** 
  56:/usr/include/newlib/c++/10.3.1/bits/basic_string.tcc ****   template<typename _CharT, typename _Traits, typename _Alloc>
  57:/usr/include/newlib/c++/10.3.1/bits/basic_string.tcc ****     void
  58:/usr/include/newlib/c++/10.3.1/bits/basic_string.tcc ****     basic_string<_CharT, _Traits, _Alloc>::
  59:/usr/include/newlib/c++/10.3.1/bits/basic_string.tcc ****     swap(basic_string& __s) _GLIBCXX_NOEXCEPT
  60:/usr/include/newlib/c++/10.3.1/bits/basic_string.tcc ****     {
ARM GAS  /tmp/ccRLs6kU.s 			page 8


  61:/usr/include/newlib/c++/10.3.1/bits/basic_string.tcc ****       if (this == &__s)
  62:/usr/include/newlib/c++/10.3.1/bits/basic_string.tcc **** 	return;
  63:/usr/include/newlib/c++/10.3.1/bits/basic_string.tcc **** 
  64:/usr/include/newlib/c++/10.3.1/bits/basic_string.tcc ****       _Alloc_traits::_S_on_swap(_M_get_allocator(), __s._M_get_allocator());
  65:/usr/include/newlib/c++/10.3.1/bits/basic_string.tcc **** 
  66:/usr/include/newlib/c++/10.3.1/bits/basic_string.tcc ****       if (_M_is_local())
  67:/usr/include/newlib/c++/10.3.1/bits/basic_string.tcc **** 	if (__s._M_is_local())
  68:/usr/include/newlib/c++/10.3.1/bits/basic_string.tcc **** 	  {
  69:/usr/include/newlib/c++/10.3.1/bits/basic_string.tcc **** 	    if (length() && __s.length())
  70:/usr/include/newlib/c++/10.3.1/bits/basic_string.tcc **** 	      {
  71:/usr/include/newlib/c++/10.3.1/bits/basic_string.tcc **** 		_CharT __tmp_data[_S_local_capacity + 1];
  72:/usr/include/newlib/c++/10.3.1/bits/basic_string.tcc **** 		traits_type::copy(__tmp_data, __s._M_local_buf,
  73:/usr/include/newlib/c++/10.3.1/bits/basic_string.tcc **** 				  _S_local_capacity + 1);
  74:/usr/include/newlib/c++/10.3.1/bits/basic_string.tcc **** 		traits_type::copy(__s._M_local_buf, _M_local_buf,
  75:/usr/include/newlib/c++/10.3.1/bits/basic_string.tcc **** 				  _S_local_capacity + 1);
  76:/usr/include/newlib/c++/10.3.1/bits/basic_string.tcc **** 		traits_type::copy(_M_local_buf, __tmp_data,
  77:/usr/include/newlib/c++/10.3.1/bits/basic_string.tcc **** 				  _S_local_capacity + 1);
  78:/usr/include/newlib/c++/10.3.1/bits/basic_string.tcc **** 	      }
  79:/usr/include/newlib/c++/10.3.1/bits/basic_string.tcc **** 	    else if (__s.length())
  80:/usr/include/newlib/c++/10.3.1/bits/basic_string.tcc **** 	      {
  81:/usr/include/newlib/c++/10.3.1/bits/basic_string.tcc **** 		traits_type::copy(_M_local_buf, __s._M_local_buf,
  82:/usr/include/newlib/c++/10.3.1/bits/basic_string.tcc **** 				  _S_local_capacity + 1);
  83:/usr/include/newlib/c++/10.3.1/bits/basic_string.tcc **** 		_M_length(__s.length());
  84:/usr/include/newlib/c++/10.3.1/bits/basic_string.tcc **** 		__s._M_set_length(0);
  85:/usr/include/newlib/c++/10.3.1/bits/basic_string.tcc **** 		return;
  86:/usr/include/newlib/c++/10.3.1/bits/basic_string.tcc **** 	      }
  87:/usr/include/newlib/c++/10.3.1/bits/basic_string.tcc **** 	    else if (length())
  88:/usr/include/newlib/c++/10.3.1/bits/basic_string.tcc **** 	      {
  89:/usr/include/newlib/c++/10.3.1/bits/basic_string.tcc **** 		traits_type::copy(__s._M_local_buf, _M_local_buf,
  90:/usr/include/newlib/c++/10.3.1/bits/basic_string.tcc **** 				  _S_local_capacity + 1);
  91:/usr/include/newlib/c++/10.3.1/bits/basic_string.tcc **** 		__s._M_length(length());
  92:/usr/include/newlib/c++/10.3.1/bits/basic_string.tcc **** 		_M_set_length(0);
  93:/usr/include/newlib/c++/10.3.1/bits/basic_string.tcc **** 		return;
  94:/usr/include/newlib/c++/10.3.1/bits/basic_string.tcc **** 	      }
  95:/usr/include/newlib/c++/10.3.1/bits/basic_string.tcc **** 	  }
  96:/usr/include/newlib/c++/10.3.1/bits/basic_string.tcc **** 	else
  97:/usr/include/newlib/c++/10.3.1/bits/basic_string.tcc **** 	  {
  98:/usr/include/newlib/c++/10.3.1/bits/basic_string.tcc **** 	    const size_type __tmp_capacity = __s._M_allocated_capacity;
  99:/usr/include/newlib/c++/10.3.1/bits/basic_string.tcc **** 	    traits_type::copy(__s._M_local_buf, _M_local_buf,
 100:/usr/include/newlib/c++/10.3.1/bits/basic_string.tcc **** 			      _S_local_capacity + 1);
 101:/usr/include/newlib/c++/10.3.1/bits/basic_string.tcc **** 	    _M_data(__s._M_data());
 102:/usr/include/newlib/c++/10.3.1/bits/basic_string.tcc **** 	    __s._M_data(__s._M_local_buf);
 103:/usr/include/newlib/c++/10.3.1/bits/basic_string.tcc **** 	    _M_capacity(__tmp_capacity);
 104:/usr/include/newlib/c++/10.3.1/bits/basic_string.tcc **** 	  }
 105:/usr/include/newlib/c++/10.3.1/bits/basic_string.tcc ****       else
 106:/usr/include/newlib/c++/10.3.1/bits/basic_string.tcc **** 	{
 107:/usr/include/newlib/c++/10.3.1/bits/basic_string.tcc **** 	  const size_type __tmp_capacity = _M_allocated_capacity;
 108:/usr/include/newlib/c++/10.3.1/bits/basic_string.tcc **** 	  if (__s._M_is_local())
 109:/usr/include/newlib/c++/10.3.1/bits/basic_string.tcc **** 	    {
 110:/usr/include/newlib/c++/10.3.1/bits/basic_string.tcc **** 	      traits_type::copy(_M_local_buf, __s._M_local_buf,
 111:/usr/include/newlib/c++/10.3.1/bits/basic_string.tcc **** 				_S_local_capacity + 1);
 112:/usr/include/newlib/c++/10.3.1/bits/basic_string.tcc **** 	      __s._M_data(_M_data());
 113:/usr/include/newlib/c++/10.3.1/bits/basic_string.tcc **** 	      _M_data(_M_local_buf);
 114:/usr/include/newlib/c++/10.3.1/bits/basic_string.tcc **** 	    }
 115:/usr/include/newlib/c++/10.3.1/bits/basic_string.tcc **** 	  else
 116:/usr/include/newlib/c++/10.3.1/bits/basic_string.tcc **** 	    {
 117:/usr/include/newlib/c++/10.3.1/bits/basic_string.tcc **** 	      pointer __tmp_ptr = _M_data();
ARM GAS  /tmp/ccRLs6kU.s 			page 9


 118:/usr/include/newlib/c++/10.3.1/bits/basic_string.tcc **** 	      _M_data(__s._M_data());
 119:/usr/include/newlib/c++/10.3.1/bits/basic_string.tcc **** 	      __s._M_data(__tmp_ptr);
 120:/usr/include/newlib/c++/10.3.1/bits/basic_string.tcc **** 	      _M_capacity(__s._M_allocated_capacity);
 121:/usr/include/newlib/c++/10.3.1/bits/basic_string.tcc **** 	    }
 122:/usr/include/newlib/c++/10.3.1/bits/basic_string.tcc **** 	  __s._M_capacity(__tmp_capacity);
 123:/usr/include/newlib/c++/10.3.1/bits/basic_string.tcc **** 	}
 124:/usr/include/newlib/c++/10.3.1/bits/basic_string.tcc **** 
 125:/usr/include/newlib/c++/10.3.1/bits/basic_string.tcc ****       const size_type __tmp_length = length();
 126:/usr/include/newlib/c++/10.3.1/bits/basic_string.tcc ****       _M_length(__s.length());
 127:/usr/include/newlib/c++/10.3.1/bits/basic_string.tcc ****       __s._M_length(__tmp_length);
 128:/usr/include/newlib/c++/10.3.1/bits/basic_string.tcc ****     }
 129:/usr/include/newlib/c++/10.3.1/bits/basic_string.tcc **** 
 130:/usr/include/newlib/c++/10.3.1/bits/basic_string.tcc ****   template<typename _CharT, typename _Traits, typename _Alloc>
 131:/usr/include/newlib/c++/10.3.1/bits/basic_string.tcc ****     typename basic_string<_CharT, _Traits, _Alloc>::pointer
 132:/usr/include/newlib/c++/10.3.1/bits/basic_string.tcc ****     basic_string<_CharT, _Traits, _Alloc>::
 133:/usr/include/newlib/c++/10.3.1/bits/basic_string.tcc ****     _M_create(size_type& __capacity, size_type __old_capacity)
 134:/usr/include/newlib/c++/10.3.1/bits/basic_string.tcc ****     {
 135:/usr/include/newlib/c++/10.3.1/bits/basic_string.tcc ****       // _GLIBCXX_RESOLVE_LIB_DEFECTS
 136:/usr/include/newlib/c++/10.3.1/bits/basic_string.tcc ****       // 83.  String::npos vs. string::max_size()
 137:/usr/include/newlib/c++/10.3.1/bits/basic_string.tcc ****       if (__capacity > max_size())
 138:/usr/include/newlib/c++/10.3.1/bits/basic_string.tcc **** 	std::__throw_length_error(__N("basic_string::_M_create"));
 139:/usr/include/newlib/c++/10.3.1/bits/basic_string.tcc **** 
 140:/usr/include/newlib/c++/10.3.1/bits/basic_string.tcc ****       // The below implements an exponential growth policy, necessary to
 141:/usr/include/newlib/c++/10.3.1/bits/basic_string.tcc ****       // meet amortized linear time requirements of the library: see
 142:/usr/include/newlib/c++/10.3.1/bits/basic_string.tcc ****       // http://gcc.gnu.org/ml/libstdc++/2001-07/msg00085.html.
 143:/usr/include/newlib/c++/10.3.1/bits/basic_string.tcc ****       if (__capacity > __old_capacity && __capacity < 2 * __old_capacity)
 144:/usr/include/newlib/c++/10.3.1/bits/basic_string.tcc **** 	{
 145:/usr/include/newlib/c++/10.3.1/bits/basic_string.tcc **** 	  __capacity = 2 * __old_capacity;
 146:/usr/include/newlib/c++/10.3.1/bits/basic_string.tcc **** 	  // Never allocate a string bigger than max_size.
 147:/usr/include/newlib/c++/10.3.1/bits/basic_string.tcc **** 	  if (__capacity > max_size())
 148:/usr/include/newlib/c++/10.3.1/bits/basic_string.tcc **** 	    __capacity = max_size();
 149:/usr/include/newlib/c++/10.3.1/bits/basic_string.tcc **** 	}
 150:/usr/include/newlib/c++/10.3.1/bits/basic_string.tcc **** 
 151:/usr/include/newlib/c++/10.3.1/bits/basic_string.tcc ****       // NB: Need an array of char_type[__capacity], plus a terminating
 152:/usr/include/newlib/c++/10.3.1/bits/basic_string.tcc ****       // null char_type() element.
 153:/usr/include/newlib/c++/10.3.1/bits/basic_string.tcc ****       return _Alloc_traits::allocate(_M_get_allocator(), __capacity + 1);
 154:/usr/include/newlib/c++/10.3.1/bits/basic_string.tcc ****     }
 155:/usr/include/newlib/c++/10.3.1/bits/basic_string.tcc **** 
 156:/usr/include/newlib/c++/10.3.1/bits/basic_string.tcc ****   // NB: This is the special case for Input Iterators, used in
 157:/usr/include/newlib/c++/10.3.1/bits/basic_string.tcc ****   // istreambuf_iterators, etc.
 158:/usr/include/newlib/c++/10.3.1/bits/basic_string.tcc ****   // Input Iterators have a cost structure very different from
 159:/usr/include/newlib/c++/10.3.1/bits/basic_string.tcc ****   // pointers, calling for a different coding style.
 160:/usr/include/newlib/c++/10.3.1/bits/basic_string.tcc ****   template<typename _CharT, typename _Traits, typename _Alloc>
 161:/usr/include/newlib/c++/10.3.1/bits/basic_string.tcc ****     template<typename _InIterator>
 162:/usr/include/newlib/c++/10.3.1/bits/basic_string.tcc ****       void
 163:/usr/include/newlib/c++/10.3.1/bits/basic_string.tcc ****       basic_string<_CharT, _Traits, _Alloc>::
 164:/usr/include/newlib/c++/10.3.1/bits/basic_string.tcc ****       _M_construct(_InIterator __beg, _InIterator __end,
 165:/usr/include/newlib/c++/10.3.1/bits/basic_string.tcc **** 		   std::input_iterator_tag)
 166:/usr/include/newlib/c++/10.3.1/bits/basic_string.tcc ****       {
 167:/usr/include/newlib/c++/10.3.1/bits/basic_string.tcc **** 	size_type __len = 0;
 168:/usr/include/newlib/c++/10.3.1/bits/basic_string.tcc **** 	size_type __capacity = size_type(_S_local_capacity);
 169:/usr/include/newlib/c++/10.3.1/bits/basic_string.tcc **** 
 170:/usr/include/newlib/c++/10.3.1/bits/basic_string.tcc **** 	while (__beg != __end && __len < __capacity)
 171:/usr/include/newlib/c++/10.3.1/bits/basic_string.tcc **** 	  {
 172:/usr/include/newlib/c++/10.3.1/bits/basic_string.tcc **** 	    _M_data()[__len++] = *__beg;
 173:/usr/include/newlib/c++/10.3.1/bits/basic_string.tcc **** 	    ++__beg;
 174:/usr/include/newlib/c++/10.3.1/bits/basic_string.tcc **** 	  }
ARM GAS  /tmp/ccRLs6kU.s 			page 10


 175:/usr/include/newlib/c++/10.3.1/bits/basic_string.tcc **** 
 176:/usr/include/newlib/c++/10.3.1/bits/basic_string.tcc **** 	__try
 177:/usr/include/newlib/c++/10.3.1/bits/basic_string.tcc **** 	  {
 178:/usr/include/newlib/c++/10.3.1/bits/basic_string.tcc **** 	    while (__beg != __end)
 179:/usr/include/newlib/c++/10.3.1/bits/basic_string.tcc **** 	      {
 180:/usr/include/newlib/c++/10.3.1/bits/basic_string.tcc **** 		if (__len == __capacity)
 181:/usr/include/newlib/c++/10.3.1/bits/basic_string.tcc **** 		  {
 182:/usr/include/newlib/c++/10.3.1/bits/basic_string.tcc **** 		    // Allocate more space.
 183:/usr/include/newlib/c++/10.3.1/bits/basic_string.tcc **** 		    __capacity = __len + 1;
 184:/usr/include/newlib/c++/10.3.1/bits/basic_string.tcc **** 		    pointer __another = _M_create(__capacity, __len);
 185:/usr/include/newlib/c++/10.3.1/bits/basic_string.tcc **** 		    this->_S_copy(__another, _M_data(), __len);
 186:/usr/include/newlib/c++/10.3.1/bits/basic_string.tcc **** 		    _M_dispose();
 187:/usr/include/newlib/c++/10.3.1/bits/basic_string.tcc **** 		    _M_data(__another);
 188:/usr/include/newlib/c++/10.3.1/bits/basic_string.tcc **** 		    _M_capacity(__capacity);
 189:/usr/include/newlib/c++/10.3.1/bits/basic_string.tcc **** 		  }
 190:/usr/include/newlib/c++/10.3.1/bits/basic_string.tcc **** 		_M_data()[__len++] = *__beg;
 191:/usr/include/newlib/c++/10.3.1/bits/basic_string.tcc **** 		++__beg;
 192:/usr/include/newlib/c++/10.3.1/bits/basic_string.tcc **** 	      }
 193:/usr/include/newlib/c++/10.3.1/bits/basic_string.tcc **** 	  }
 194:/usr/include/newlib/c++/10.3.1/bits/basic_string.tcc **** 	__catch(...)
 195:/usr/include/newlib/c++/10.3.1/bits/basic_string.tcc **** 	  {
 196:/usr/include/newlib/c++/10.3.1/bits/basic_string.tcc **** 	    _M_dispose();
 197:/usr/include/newlib/c++/10.3.1/bits/basic_string.tcc **** 	    __throw_exception_again;
 198:/usr/include/newlib/c++/10.3.1/bits/basic_string.tcc **** 	  }
 199:/usr/include/newlib/c++/10.3.1/bits/basic_string.tcc **** 
 200:/usr/include/newlib/c++/10.3.1/bits/basic_string.tcc **** 	_M_set_length(__len);
 201:/usr/include/newlib/c++/10.3.1/bits/basic_string.tcc ****       }
 202:/usr/include/newlib/c++/10.3.1/bits/basic_string.tcc **** 
 203:/usr/include/newlib/c++/10.3.1/bits/basic_string.tcc ****   template<typename _CharT, typename _Traits, typename _Alloc>
 204:/usr/include/newlib/c++/10.3.1/bits/basic_string.tcc ****     template<typename _InIterator>
 205:/usr/include/newlib/c++/10.3.1/bits/basic_string.tcc ****       void
 206:/usr/include/newlib/c++/10.3.1/bits/basic_string.tcc ****       basic_string<_CharT, _Traits, _Alloc>::
 261              		.loc 2 206 7 is_stmt 1 view -0
 262              		.cfi_startproc
 263              		@ args = 0, pretend = 0, frame = 8
 264              		@ frame_needed = 0, uses_anonymous_args = 0
 265              		.loc 2 206 7 is_stmt 0 view .LVU46
 266 0000 70B5     		push	{r4, r5, r6, lr}
 267              		.save {r4, r5, r6, lr}
 268              	.LCFI5:
 269              		.cfi_def_cfa_offset 16
 270              		.cfi_offset 4, -16
 271              		.cfi_offset 5, -12
 272              		.cfi_offset 6, -8
 273              		.cfi_offset 14, -4
 274              		.pad #8
 275 0002 82B0     		sub	sp, sp, #8
 276              	.LCFI6:
 277              		.cfi_def_cfa_offset 24
 278 0004 0546     		mov	r5, r0
 207:/usr/include/newlib/c++/10.3.1/bits/basic_string.tcc ****       _M_construct(_InIterator __beg, _InIterator __end,
 208:/usr/include/newlib/c++/10.3.1/bits/basic_string.tcc **** 		   std::forward_iterator_tag)
 209:/usr/include/newlib/c++/10.3.1/bits/basic_string.tcc ****       {
 210:/usr/include/newlib/c++/10.3.1/bits/basic_string.tcc **** 	// NB: Not required, but considered best practice.
 211:/usr/include/newlib/c++/10.3.1/bits/basic_string.tcc **** 	if (__gnu_cxx::__is_null_pointer(__beg) && __beg != __end)
 279              		.loc 2 211 42 view .LVU47
 280 0006 0E46     		mov	r6, r1
ARM GAS  /tmp/ccRLs6kU.s 			page 11


 281 0008 61B1     		cbz	r1, .L24
 282              	.L19:
 283              	.LVL18:
 284              	.LBB366:
 285              	.LBI366:
 286              		.file 3 "/usr/include/newlib/c++/10.3.1/bits/stl_iterator_base_funcs.h"
   1:/usr/include/newlib/c++/10.3.1/bits/stl_iterator_base_funcs.h **** // Functions used by iterators -*- C++ -*-
   2:/usr/include/newlib/c++/10.3.1/bits/stl_iterator_base_funcs.h **** 
   3:/usr/include/newlib/c++/10.3.1/bits/stl_iterator_base_funcs.h **** // Copyright (C) 2001-2020 Free Software Foundation, Inc.
   4:/usr/include/newlib/c++/10.3.1/bits/stl_iterator_base_funcs.h **** //
   5:/usr/include/newlib/c++/10.3.1/bits/stl_iterator_base_funcs.h **** // This file is part of the GNU ISO C++ Library.  This library is free
   6:/usr/include/newlib/c++/10.3.1/bits/stl_iterator_base_funcs.h **** // software; you can redistribute it and/or modify it under the
   7:/usr/include/newlib/c++/10.3.1/bits/stl_iterator_base_funcs.h **** // terms of the GNU General Public License as published by the
   8:/usr/include/newlib/c++/10.3.1/bits/stl_iterator_base_funcs.h **** // Free Software Foundation; either version 3, or (at your option)
   9:/usr/include/newlib/c++/10.3.1/bits/stl_iterator_base_funcs.h **** // any later version.
  10:/usr/include/newlib/c++/10.3.1/bits/stl_iterator_base_funcs.h **** 
  11:/usr/include/newlib/c++/10.3.1/bits/stl_iterator_base_funcs.h **** // This library is distributed in the hope that it will be useful,
  12:/usr/include/newlib/c++/10.3.1/bits/stl_iterator_base_funcs.h **** // but WITHOUT ANY WARRANTY; without even the implied warranty of
  13:/usr/include/newlib/c++/10.3.1/bits/stl_iterator_base_funcs.h **** // MERCHANTABILITY or FITNESS FOR A PARTICULAR PURPOSE.  See the
  14:/usr/include/newlib/c++/10.3.1/bits/stl_iterator_base_funcs.h **** // GNU General Public License for more details.
  15:/usr/include/newlib/c++/10.3.1/bits/stl_iterator_base_funcs.h **** 
  16:/usr/include/newlib/c++/10.3.1/bits/stl_iterator_base_funcs.h **** // Under Section 7 of GPL version 3, you are granted additional
  17:/usr/include/newlib/c++/10.3.1/bits/stl_iterator_base_funcs.h **** // permissions described in the GCC Runtime Library Exception, version
  18:/usr/include/newlib/c++/10.3.1/bits/stl_iterator_base_funcs.h **** // 3.1, as published by the Free Software Foundation.
  19:/usr/include/newlib/c++/10.3.1/bits/stl_iterator_base_funcs.h **** 
  20:/usr/include/newlib/c++/10.3.1/bits/stl_iterator_base_funcs.h **** // You should have received a copy of the GNU General Public License and
  21:/usr/include/newlib/c++/10.3.1/bits/stl_iterator_base_funcs.h **** // a copy of the GCC Runtime Library Exception along with this program;
  22:/usr/include/newlib/c++/10.3.1/bits/stl_iterator_base_funcs.h **** // see the files COPYING3 and COPYING.RUNTIME respectively.  If not, see
  23:/usr/include/newlib/c++/10.3.1/bits/stl_iterator_base_funcs.h **** // <http://www.gnu.org/licenses/>.
  24:/usr/include/newlib/c++/10.3.1/bits/stl_iterator_base_funcs.h **** 
  25:/usr/include/newlib/c++/10.3.1/bits/stl_iterator_base_funcs.h **** /*
  26:/usr/include/newlib/c++/10.3.1/bits/stl_iterator_base_funcs.h ****  *
  27:/usr/include/newlib/c++/10.3.1/bits/stl_iterator_base_funcs.h ****  * Copyright (c) 1994
  28:/usr/include/newlib/c++/10.3.1/bits/stl_iterator_base_funcs.h ****  * Hewlett-Packard Company
  29:/usr/include/newlib/c++/10.3.1/bits/stl_iterator_base_funcs.h ****  *
  30:/usr/include/newlib/c++/10.3.1/bits/stl_iterator_base_funcs.h ****  * Permission to use, copy, modify, distribute and sell this software
  31:/usr/include/newlib/c++/10.3.1/bits/stl_iterator_base_funcs.h ****  * and its documentation for any purpose is hereby granted without fee,
  32:/usr/include/newlib/c++/10.3.1/bits/stl_iterator_base_funcs.h ****  * provided that the above copyright notice appear in all copies and
  33:/usr/include/newlib/c++/10.3.1/bits/stl_iterator_base_funcs.h ****  * that both that copyright notice and this permission notice appear
  34:/usr/include/newlib/c++/10.3.1/bits/stl_iterator_base_funcs.h ****  * in supporting documentation.  Hewlett-Packard Company makes no
  35:/usr/include/newlib/c++/10.3.1/bits/stl_iterator_base_funcs.h ****  * representations about the suitability of this software for any
  36:/usr/include/newlib/c++/10.3.1/bits/stl_iterator_base_funcs.h ****  * purpose.  It is provided "as is" without express or implied warranty.
  37:/usr/include/newlib/c++/10.3.1/bits/stl_iterator_base_funcs.h ****  *
  38:/usr/include/newlib/c++/10.3.1/bits/stl_iterator_base_funcs.h ****  *
  39:/usr/include/newlib/c++/10.3.1/bits/stl_iterator_base_funcs.h ****  * Copyright (c) 1996-1998
  40:/usr/include/newlib/c++/10.3.1/bits/stl_iterator_base_funcs.h ****  * Silicon Graphics Computer Systems, Inc.
  41:/usr/include/newlib/c++/10.3.1/bits/stl_iterator_base_funcs.h ****  *
  42:/usr/include/newlib/c++/10.3.1/bits/stl_iterator_base_funcs.h ****  * Permission to use, copy, modify, distribute and sell this software
  43:/usr/include/newlib/c++/10.3.1/bits/stl_iterator_base_funcs.h ****  * and its documentation for any purpose is hereby granted without fee,
  44:/usr/include/newlib/c++/10.3.1/bits/stl_iterator_base_funcs.h ****  * provided that the above copyright notice appear in all copies and
  45:/usr/include/newlib/c++/10.3.1/bits/stl_iterator_base_funcs.h ****  * that both that copyright notice and this permission notice appear
  46:/usr/include/newlib/c++/10.3.1/bits/stl_iterator_base_funcs.h ****  * in supporting documentation.  Silicon Graphics makes no
  47:/usr/include/newlib/c++/10.3.1/bits/stl_iterator_base_funcs.h ****  * representations about the suitability of this software for any
  48:/usr/include/newlib/c++/10.3.1/bits/stl_iterator_base_funcs.h ****  * purpose.  It is provided "as is" without express or implied warranty.
  49:/usr/include/newlib/c++/10.3.1/bits/stl_iterator_base_funcs.h ****  */
  50:/usr/include/newlib/c++/10.3.1/bits/stl_iterator_base_funcs.h **** 
  51:/usr/include/newlib/c++/10.3.1/bits/stl_iterator_base_funcs.h **** /** @file bits/stl_iterator_base_funcs.h
ARM GAS  /tmp/ccRLs6kU.s 			page 12


  52:/usr/include/newlib/c++/10.3.1/bits/stl_iterator_base_funcs.h ****  *  This is an internal header file, included by other library headers.
  53:/usr/include/newlib/c++/10.3.1/bits/stl_iterator_base_funcs.h ****  *  Do not attempt to use it directly. @headername{iterator}
  54:/usr/include/newlib/c++/10.3.1/bits/stl_iterator_base_funcs.h ****  *
  55:/usr/include/newlib/c++/10.3.1/bits/stl_iterator_base_funcs.h ****  *  This file contains all of the general iterator-related utility
  56:/usr/include/newlib/c++/10.3.1/bits/stl_iterator_base_funcs.h ****  *  functions, such as distance() and advance().
  57:/usr/include/newlib/c++/10.3.1/bits/stl_iterator_base_funcs.h ****  */
  58:/usr/include/newlib/c++/10.3.1/bits/stl_iterator_base_funcs.h **** 
  59:/usr/include/newlib/c++/10.3.1/bits/stl_iterator_base_funcs.h **** #ifndef _STL_ITERATOR_BASE_FUNCS_H
  60:/usr/include/newlib/c++/10.3.1/bits/stl_iterator_base_funcs.h **** #define _STL_ITERATOR_BASE_FUNCS_H 1
  61:/usr/include/newlib/c++/10.3.1/bits/stl_iterator_base_funcs.h **** 
  62:/usr/include/newlib/c++/10.3.1/bits/stl_iterator_base_funcs.h **** #pragma GCC system_header
  63:/usr/include/newlib/c++/10.3.1/bits/stl_iterator_base_funcs.h **** 
  64:/usr/include/newlib/c++/10.3.1/bits/stl_iterator_base_funcs.h **** #include <bits/concept_check.h>
  65:/usr/include/newlib/c++/10.3.1/bits/stl_iterator_base_funcs.h **** #include <debug/assertions.h>
  66:/usr/include/newlib/c++/10.3.1/bits/stl_iterator_base_funcs.h **** 
  67:/usr/include/newlib/c++/10.3.1/bits/stl_iterator_base_funcs.h **** namespace std _GLIBCXX_VISIBILITY(default)
  68:/usr/include/newlib/c++/10.3.1/bits/stl_iterator_base_funcs.h **** {
  69:/usr/include/newlib/c++/10.3.1/bits/stl_iterator_base_funcs.h **** _GLIBCXX_BEGIN_NAMESPACE_VERSION
  70:/usr/include/newlib/c++/10.3.1/bits/stl_iterator_base_funcs.h **** 
  71:/usr/include/newlib/c++/10.3.1/bits/stl_iterator_base_funcs.h **** _GLIBCXX_BEGIN_NAMESPACE_CONTAINER
  72:/usr/include/newlib/c++/10.3.1/bits/stl_iterator_base_funcs.h ****   // Forward declaration for the overloads of __distance.
  73:/usr/include/newlib/c++/10.3.1/bits/stl_iterator_base_funcs.h ****   template <typename> struct _List_iterator;
  74:/usr/include/newlib/c++/10.3.1/bits/stl_iterator_base_funcs.h ****   template <typename> struct _List_const_iterator;
  75:/usr/include/newlib/c++/10.3.1/bits/stl_iterator_base_funcs.h **** _GLIBCXX_END_NAMESPACE_CONTAINER
  76:/usr/include/newlib/c++/10.3.1/bits/stl_iterator_base_funcs.h **** 
  77:/usr/include/newlib/c++/10.3.1/bits/stl_iterator_base_funcs.h ****   template<typename _InputIterator>
  78:/usr/include/newlib/c++/10.3.1/bits/stl_iterator_base_funcs.h ****     inline _GLIBCXX14_CONSTEXPR
  79:/usr/include/newlib/c++/10.3.1/bits/stl_iterator_base_funcs.h ****     typename iterator_traits<_InputIterator>::difference_type
  80:/usr/include/newlib/c++/10.3.1/bits/stl_iterator_base_funcs.h ****     __distance(_InputIterator __first, _InputIterator __last,
  81:/usr/include/newlib/c++/10.3.1/bits/stl_iterator_base_funcs.h ****                input_iterator_tag)
  82:/usr/include/newlib/c++/10.3.1/bits/stl_iterator_base_funcs.h ****     {
  83:/usr/include/newlib/c++/10.3.1/bits/stl_iterator_base_funcs.h ****       // concept requirements
  84:/usr/include/newlib/c++/10.3.1/bits/stl_iterator_base_funcs.h ****       __glibcxx_function_requires(_InputIteratorConcept<_InputIterator>)
  85:/usr/include/newlib/c++/10.3.1/bits/stl_iterator_base_funcs.h **** 
  86:/usr/include/newlib/c++/10.3.1/bits/stl_iterator_base_funcs.h ****       typename iterator_traits<_InputIterator>::difference_type __n = 0;
  87:/usr/include/newlib/c++/10.3.1/bits/stl_iterator_base_funcs.h ****       while (__first != __last)
  88:/usr/include/newlib/c++/10.3.1/bits/stl_iterator_base_funcs.h **** 	{
  89:/usr/include/newlib/c++/10.3.1/bits/stl_iterator_base_funcs.h **** 	  ++__first;
  90:/usr/include/newlib/c++/10.3.1/bits/stl_iterator_base_funcs.h **** 	  ++__n;
  91:/usr/include/newlib/c++/10.3.1/bits/stl_iterator_base_funcs.h **** 	}
  92:/usr/include/newlib/c++/10.3.1/bits/stl_iterator_base_funcs.h ****       return __n;
  93:/usr/include/newlib/c++/10.3.1/bits/stl_iterator_base_funcs.h ****     }
  94:/usr/include/newlib/c++/10.3.1/bits/stl_iterator_base_funcs.h **** 
  95:/usr/include/newlib/c++/10.3.1/bits/stl_iterator_base_funcs.h ****   template<typename _RandomAccessIterator>
  96:/usr/include/newlib/c++/10.3.1/bits/stl_iterator_base_funcs.h ****     inline _GLIBCXX14_CONSTEXPR
  97:/usr/include/newlib/c++/10.3.1/bits/stl_iterator_base_funcs.h ****     typename iterator_traits<_RandomAccessIterator>::difference_type
  98:/usr/include/newlib/c++/10.3.1/bits/stl_iterator_base_funcs.h ****     __distance(_RandomAccessIterator __first, _RandomAccessIterator __last,
  99:/usr/include/newlib/c++/10.3.1/bits/stl_iterator_base_funcs.h ****                random_access_iterator_tag)
 100:/usr/include/newlib/c++/10.3.1/bits/stl_iterator_base_funcs.h ****     {
 101:/usr/include/newlib/c++/10.3.1/bits/stl_iterator_base_funcs.h ****       // concept requirements
 102:/usr/include/newlib/c++/10.3.1/bits/stl_iterator_base_funcs.h ****       __glibcxx_function_requires(_RandomAccessIteratorConcept<
 103:/usr/include/newlib/c++/10.3.1/bits/stl_iterator_base_funcs.h **** 				  _RandomAccessIterator>)
 104:/usr/include/newlib/c++/10.3.1/bits/stl_iterator_base_funcs.h ****       return __last - __first;
 105:/usr/include/newlib/c++/10.3.1/bits/stl_iterator_base_funcs.h ****     }
 106:/usr/include/newlib/c++/10.3.1/bits/stl_iterator_base_funcs.h **** 
 107:/usr/include/newlib/c++/10.3.1/bits/stl_iterator_base_funcs.h **** #if _GLIBCXX_USE_CXX11_ABI
 108:/usr/include/newlib/c++/10.3.1/bits/stl_iterator_base_funcs.h ****   // Forward declaration because of the qualified call in distance.
ARM GAS  /tmp/ccRLs6kU.s 			page 13


 109:/usr/include/newlib/c++/10.3.1/bits/stl_iterator_base_funcs.h ****   template<typename _Tp>
 110:/usr/include/newlib/c++/10.3.1/bits/stl_iterator_base_funcs.h ****     ptrdiff_t
 111:/usr/include/newlib/c++/10.3.1/bits/stl_iterator_base_funcs.h ****     __distance(_GLIBCXX_STD_C::_List_iterator<_Tp>,
 112:/usr/include/newlib/c++/10.3.1/bits/stl_iterator_base_funcs.h **** 	       _GLIBCXX_STD_C::_List_iterator<_Tp>,
 113:/usr/include/newlib/c++/10.3.1/bits/stl_iterator_base_funcs.h **** 	       input_iterator_tag);
 114:/usr/include/newlib/c++/10.3.1/bits/stl_iterator_base_funcs.h **** 
 115:/usr/include/newlib/c++/10.3.1/bits/stl_iterator_base_funcs.h ****   template<typename _Tp>
 116:/usr/include/newlib/c++/10.3.1/bits/stl_iterator_base_funcs.h ****     ptrdiff_t
 117:/usr/include/newlib/c++/10.3.1/bits/stl_iterator_base_funcs.h ****     __distance(_GLIBCXX_STD_C::_List_const_iterator<_Tp>,
 118:/usr/include/newlib/c++/10.3.1/bits/stl_iterator_base_funcs.h **** 	       _GLIBCXX_STD_C::_List_const_iterator<_Tp>,
 119:/usr/include/newlib/c++/10.3.1/bits/stl_iterator_base_funcs.h **** 	       input_iterator_tag);
 120:/usr/include/newlib/c++/10.3.1/bits/stl_iterator_base_funcs.h **** #endif
 121:/usr/include/newlib/c++/10.3.1/bits/stl_iterator_base_funcs.h **** 
 122:/usr/include/newlib/c++/10.3.1/bits/stl_iterator_base_funcs.h ****   /**
 123:/usr/include/newlib/c++/10.3.1/bits/stl_iterator_base_funcs.h ****    *  @brief A generalization of pointer arithmetic.
 124:/usr/include/newlib/c++/10.3.1/bits/stl_iterator_base_funcs.h ****    *  @param  __first  An input iterator.
 125:/usr/include/newlib/c++/10.3.1/bits/stl_iterator_base_funcs.h ****    *  @param  __last  An input iterator.
 126:/usr/include/newlib/c++/10.3.1/bits/stl_iterator_base_funcs.h ****    *  @return  The distance between them.
 127:/usr/include/newlib/c++/10.3.1/bits/stl_iterator_base_funcs.h ****    *
 128:/usr/include/newlib/c++/10.3.1/bits/stl_iterator_base_funcs.h ****    *  Returns @c n such that __first + n == __last.  This requires
 129:/usr/include/newlib/c++/10.3.1/bits/stl_iterator_base_funcs.h ****    *  that @p __last must be reachable from @p __first.  Note that @c
 130:/usr/include/newlib/c++/10.3.1/bits/stl_iterator_base_funcs.h ****    *  n may be negative.
 131:/usr/include/newlib/c++/10.3.1/bits/stl_iterator_base_funcs.h ****    *
 132:/usr/include/newlib/c++/10.3.1/bits/stl_iterator_base_funcs.h ****    *  For random access iterators, this uses their @c + and @c - operations
 133:/usr/include/newlib/c++/10.3.1/bits/stl_iterator_base_funcs.h ****    *  and are constant time.  For other %iterator classes they are linear time.
 134:/usr/include/newlib/c++/10.3.1/bits/stl_iterator_base_funcs.h ****   */
 135:/usr/include/newlib/c++/10.3.1/bits/stl_iterator_base_funcs.h ****   template<typename _InputIterator>
 136:/usr/include/newlib/c++/10.3.1/bits/stl_iterator_base_funcs.h ****     inline _GLIBCXX17_CONSTEXPR
 137:/usr/include/newlib/c++/10.3.1/bits/stl_iterator_base_funcs.h ****     typename iterator_traits<_InputIterator>::difference_type
 138:/usr/include/newlib/c++/10.3.1/bits/stl_iterator_base_funcs.h ****     distance(_InputIterator __first, _InputIterator __last)
 287              		.loc 3 138 5 is_stmt 1 view .LVU48
 288              	.LBB367:
 289              	.LBB368:
 290              	.LBI368:
  98:/usr/include/newlib/c++/10.3.1/bits/stl_iterator_base_funcs.h ****                random_access_iterator_tag)
 291              		.loc 3 98 5 view .LVU49
 292              	.LBB369:
 104:/usr/include/newlib/c++/10.3.1/bits/stl_iterator_base_funcs.h ****     }
 293              		.loc 3 104 23 is_stmt 0 view .LVU50
 294 000a 941B     		subs	r4, r2, r6
 295              	.LVL19:
 104:/usr/include/newlib/c++/10.3.1/bits/stl_iterator_base_funcs.h ****     }
 296              		.loc 3 104 23 view .LVU51
 297              	.LBE369:
 298              	.LBE368:
 299              	.LBE367:
 300              	.LBE366:
 212:/usr/include/newlib/c++/10.3.1/bits/basic_string.tcc **** 	  std::__throw_logic_error(__N("basic_string::"
 213:/usr/include/newlib/c++/10.3.1/bits/basic_string.tcc **** 				       "_M_construct null not valid"));
 214:/usr/include/newlib/c++/10.3.1/bits/basic_string.tcc **** 
 215:/usr/include/newlib/c++/10.3.1/bits/basic_string.tcc **** 	size_type __dnew = static_cast<size_type>(std::distance(__beg, __end));
 301              		.loc 2 215 12 view .LVU52
 302 000c 0194     		str	r4, [sp, #4]
 216:/usr/include/newlib/c++/10.3.1/bits/basic_string.tcc **** 
 217:/usr/include/newlib/c++/10.3.1/bits/basic_string.tcc **** 	if (__dnew > size_type(_S_local_capacity))
 303              		.loc 2 217 2 view .LVU53
 304 000e 0F2C     		cmp	r4, #15
ARM GAS  /tmp/ccRLs6kU.s 			page 14


 305 0010 0DD8     		bhi	.L25
 306              	.LVL20:
 307              	.L20:
 308              	.LBB370:
 309              	.LBI370:
 310              		.file 4 "/usr/include/newlib/c++/10.3.1/bits/basic_string.h"
   1:/usr/include/newlib/c++/10.3.1/bits/basic_string.h **** // Components for manipulating sequences of characters -*- C++ -*-
   2:/usr/include/newlib/c++/10.3.1/bits/basic_string.h **** 
   3:/usr/include/newlib/c++/10.3.1/bits/basic_string.h **** // Copyright (C) 1997-2020 Free Software Foundation, Inc.
   4:/usr/include/newlib/c++/10.3.1/bits/basic_string.h **** //
   5:/usr/include/newlib/c++/10.3.1/bits/basic_string.h **** // This file is part of the GNU ISO C++ Library.  This library is free
   6:/usr/include/newlib/c++/10.3.1/bits/basic_string.h **** // software; you can redistribute it and/or modify it under the
   7:/usr/include/newlib/c++/10.3.1/bits/basic_string.h **** // terms of the GNU General Public License as published by the
   8:/usr/include/newlib/c++/10.3.1/bits/basic_string.h **** // Free Software Foundation; either version 3, or (at your option)
   9:/usr/include/newlib/c++/10.3.1/bits/basic_string.h **** // any later version.
  10:/usr/include/newlib/c++/10.3.1/bits/basic_string.h **** 
  11:/usr/include/newlib/c++/10.3.1/bits/basic_string.h **** // This library is distributed in the hope that it will be useful,
  12:/usr/include/newlib/c++/10.3.1/bits/basic_string.h **** // but WITHOUT ANY WARRANTY; without even the implied warranty of
  13:/usr/include/newlib/c++/10.3.1/bits/basic_string.h **** // MERCHANTABILITY or FITNESS FOR A PARTICULAR PURPOSE.  See the
  14:/usr/include/newlib/c++/10.3.1/bits/basic_string.h **** // GNU General Public License for more details.
  15:/usr/include/newlib/c++/10.3.1/bits/basic_string.h **** 
  16:/usr/include/newlib/c++/10.3.1/bits/basic_string.h **** // Under Section 7 of GPL version 3, you are granted additional
  17:/usr/include/newlib/c++/10.3.1/bits/basic_string.h **** // permissions described in the GCC Runtime Library Exception, version
  18:/usr/include/newlib/c++/10.3.1/bits/basic_string.h **** // 3.1, as published by the Free Software Foundation.
  19:/usr/include/newlib/c++/10.3.1/bits/basic_string.h **** 
  20:/usr/include/newlib/c++/10.3.1/bits/basic_string.h **** // You should have received a copy of the GNU General Public License and
  21:/usr/include/newlib/c++/10.3.1/bits/basic_string.h **** // a copy of the GCC Runtime Library Exception along with this program;
  22:/usr/include/newlib/c++/10.3.1/bits/basic_string.h **** // see the files COPYING3 and COPYING.RUNTIME respectively.  If not, see
  23:/usr/include/newlib/c++/10.3.1/bits/basic_string.h **** // <http://www.gnu.org/licenses/>.
  24:/usr/include/newlib/c++/10.3.1/bits/basic_string.h **** 
  25:/usr/include/newlib/c++/10.3.1/bits/basic_string.h **** /** @file bits/basic_string.h
  26:/usr/include/newlib/c++/10.3.1/bits/basic_string.h ****  *  This is an internal header file, included by other library headers.
  27:/usr/include/newlib/c++/10.3.1/bits/basic_string.h ****  *  Do not attempt to use it directly. @headername{string}
  28:/usr/include/newlib/c++/10.3.1/bits/basic_string.h ****  */
  29:/usr/include/newlib/c++/10.3.1/bits/basic_string.h **** 
  30:/usr/include/newlib/c++/10.3.1/bits/basic_string.h **** //
  31:/usr/include/newlib/c++/10.3.1/bits/basic_string.h **** // ISO C++ 14882: 21 Strings library
  32:/usr/include/newlib/c++/10.3.1/bits/basic_string.h **** //
  33:/usr/include/newlib/c++/10.3.1/bits/basic_string.h **** 
  34:/usr/include/newlib/c++/10.3.1/bits/basic_string.h **** #ifndef _BASIC_STRING_H
  35:/usr/include/newlib/c++/10.3.1/bits/basic_string.h **** #define _BASIC_STRING_H 1
  36:/usr/include/newlib/c++/10.3.1/bits/basic_string.h **** 
  37:/usr/include/newlib/c++/10.3.1/bits/basic_string.h **** #pragma GCC system_header
  38:/usr/include/newlib/c++/10.3.1/bits/basic_string.h **** 
  39:/usr/include/newlib/c++/10.3.1/bits/basic_string.h **** #include <ext/atomicity.h>
  40:/usr/include/newlib/c++/10.3.1/bits/basic_string.h **** #include <ext/alloc_traits.h>
  41:/usr/include/newlib/c++/10.3.1/bits/basic_string.h **** #include <debug/debug.h>
  42:/usr/include/newlib/c++/10.3.1/bits/basic_string.h **** 
  43:/usr/include/newlib/c++/10.3.1/bits/basic_string.h **** #if __cplusplus >= 201103L
  44:/usr/include/newlib/c++/10.3.1/bits/basic_string.h **** #include <initializer_list>
  45:/usr/include/newlib/c++/10.3.1/bits/basic_string.h **** #endif
  46:/usr/include/newlib/c++/10.3.1/bits/basic_string.h **** 
  47:/usr/include/newlib/c++/10.3.1/bits/basic_string.h **** #if __cplusplus >= 201703L
  48:/usr/include/newlib/c++/10.3.1/bits/basic_string.h **** # include <string_view>
  49:/usr/include/newlib/c++/10.3.1/bits/basic_string.h **** #endif
  50:/usr/include/newlib/c++/10.3.1/bits/basic_string.h **** 
  51:/usr/include/newlib/c++/10.3.1/bits/basic_string.h **** namespace std _GLIBCXX_VISIBILITY(default)
ARM GAS  /tmp/ccRLs6kU.s 			page 15


  52:/usr/include/newlib/c++/10.3.1/bits/basic_string.h **** {
  53:/usr/include/newlib/c++/10.3.1/bits/basic_string.h **** _GLIBCXX_BEGIN_NAMESPACE_VERSION
  54:/usr/include/newlib/c++/10.3.1/bits/basic_string.h **** 
  55:/usr/include/newlib/c++/10.3.1/bits/basic_string.h **** #ifdef __cpp_lib_is_constant_evaluated
  56:/usr/include/newlib/c++/10.3.1/bits/basic_string.h **** // Support P1032R1 in C++20 (but not P0980R1 yet).
  57:/usr/include/newlib/c++/10.3.1/bits/basic_string.h **** # define __cpp_lib_constexpr_string 201811L
  58:/usr/include/newlib/c++/10.3.1/bits/basic_string.h **** #elif __cplusplus >= 201703L
  59:/usr/include/newlib/c++/10.3.1/bits/basic_string.h **** // Support P0426R1 changes to char_traits in C++17.
  60:/usr/include/newlib/c++/10.3.1/bits/basic_string.h **** # define __cpp_lib_constexpr_string 201611L
  61:/usr/include/newlib/c++/10.3.1/bits/basic_string.h **** #elif __cplusplus > 201703L
  62:/usr/include/newlib/c++/10.3.1/bits/basic_string.h **** #endif
  63:/usr/include/newlib/c++/10.3.1/bits/basic_string.h **** 
  64:/usr/include/newlib/c++/10.3.1/bits/basic_string.h **** #if _GLIBCXX_USE_CXX11_ABI
  65:/usr/include/newlib/c++/10.3.1/bits/basic_string.h **** _GLIBCXX_BEGIN_NAMESPACE_CXX11
  66:/usr/include/newlib/c++/10.3.1/bits/basic_string.h ****   /**
  67:/usr/include/newlib/c++/10.3.1/bits/basic_string.h ****    *  @class basic_string basic_string.h <string>
  68:/usr/include/newlib/c++/10.3.1/bits/basic_string.h ****    *  @brief  Managing sequences of characters and character-like objects.
  69:/usr/include/newlib/c++/10.3.1/bits/basic_string.h ****    *
  70:/usr/include/newlib/c++/10.3.1/bits/basic_string.h ****    *  @ingroup strings
  71:/usr/include/newlib/c++/10.3.1/bits/basic_string.h ****    *  @ingroup sequences
  72:/usr/include/newlib/c++/10.3.1/bits/basic_string.h ****    *
  73:/usr/include/newlib/c++/10.3.1/bits/basic_string.h ****    *  @tparam _CharT  Type of character
  74:/usr/include/newlib/c++/10.3.1/bits/basic_string.h ****    *  @tparam _Traits  Traits for character type, defaults to
  75:/usr/include/newlib/c++/10.3.1/bits/basic_string.h ****    *                   char_traits<_CharT>.
  76:/usr/include/newlib/c++/10.3.1/bits/basic_string.h ****    *  @tparam _Alloc  Allocator type, defaults to allocator<_CharT>.
  77:/usr/include/newlib/c++/10.3.1/bits/basic_string.h ****    *
  78:/usr/include/newlib/c++/10.3.1/bits/basic_string.h ****    *  Meets the requirements of a <a href="tables.html#65">container</a>, a
  79:/usr/include/newlib/c++/10.3.1/bits/basic_string.h ****    *  <a href="tables.html#66">reversible container</a>, and a
  80:/usr/include/newlib/c++/10.3.1/bits/basic_string.h ****    *  <a href="tables.html#67">sequence</a>.  Of the
  81:/usr/include/newlib/c++/10.3.1/bits/basic_string.h ****    *  <a href="tables.html#68">optional sequence requirements</a>, only
  82:/usr/include/newlib/c++/10.3.1/bits/basic_string.h ****    *  @c push_back, @c at, and @c %array access are supported.
  83:/usr/include/newlib/c++/10.3.1/bits/basic_string.h ****    */
  84:/usr/include/newlib/c++/10.3.1/bits/basic_string.h ****   template<typename _CharT, typename _Traits, typename _Alloc>
  85:/usr/include/newlib/c++/10.3.1/bits/basic_string.h ****     class basic_string
  86:/usr/include/newlib/c++/10.3.1/bits/basic_string.h ****     {
  87:/usr/include/newlib/c++/10.3.1/bits/basic_string.h ****       typedef typename __gnu_cxx::__alloc_traits<_Alloc>::template
  88:/usr/include/newlib/c++/10.3.1/bits/basic_string.h **** 	rebind<_CharT>::other _Char_alloc_type;
  89:/usr/include/newlib/c++/10.3.1/bits/basic_string.h ****       typedef __gnu_cxx::__alloc_traits<_Char_alloc_type> _Alloc_traits;
  90:/usr/include/newlib/c++/10.3.1/bits/basic_string.h **** 
  91:/usr/include/newlib/c++/10.3.1/bits/basic_string.h ****       // Types:
  92:/usr/include/newlib/c++/10.3.1/bits/basic_string.h ****     public:
  93:/usr/include/newlib/c++/10.3.1/bits/basic_string.h ****       typedef _Traits					traits_type;
  94:/usr/include/newlib/c++/10.3.1/bits/basic_string.h ****       typedef typename _Traits::char_type		value_type;
  95:/usr/include/newlib/c++/10.3.1/bits/basic_string.h ****       typedef _Char_alloc_type				allocator_type;
  96:/usr/include/newlib/c++/10.3.1/bits/basic_string.h ****       typedef typename _Alloc_traits::size_type		size_type;
  97:/usr/include/newlib/c++/10.3.1/bits/basic_string.h ****       typedef typename _Alloc_traits::difference_type	difference_type;
  98:/usr/include/newlib/c++/10.3.1/bits/basic_string.h ****       typedef typename _Alloc_traits::reference		reference;
  99:/usr/include/newlib/c++/10.3.1/bits/basic_string.h ****       typedef typename _Alloc_traits::const_reference	const_reference;
 100:/usr/include/newlib/c++/10.3.1/bits/basic_string.h ****       typedef typename _Alloc_traits::pointer		pointer;
 101:/usr/include/newlib/c++/10.3.1/bits/basic_string.h ****       typedef typename _Alloc_traits::const_pointer	const_pointer;
 102:/usr/include/newlib/c++/10.3.1/bits/basic_string.h ****       typedef __gnu_cxx::__normal_iterator<pointer, basic_string>  iterator;
 103:/usr/include/newlib/c++/10.3.1/bits/basic_string.h ****       typedef __gnu_cxx::__normal_iterator<const_pointer, basic_string>
 104:/usr/include/newlib/c++/10.3.1/bits/basic_string.h **** 							const_iterator;
 105:/usr/include/newlib/c++/10.3.1/bits/basic_string.h ****       typedef std::reverse_iterator<const_iterator>	const_reverse_iterator;
 106:/usr/include/newlib/c++/10.3.1/bits/basic_string.h ****       typedef std::reverse_iterator<iterator>		reverse_iterator;
 107:/usr/include/newlib/c++/10.3.1/bits/basic_string.h **** 
 108:/usr/include/newlib/c++/10.3.1/bits/basic_string.h ****       ///  Value returned by various member functions when they fail.
ARM GAS  /tmp/ccRLs6kU.s 			page 16


 109:/usr/include/newlib/c++/10.3.1/bits/basic_string.h ****       static const size_type	npos = static_cast<size_type>(-1);
 110:/usr/include/newlib/c++/10.3.1/bits/basic_string.h **** 
 111:/usr/include/newlib/c++/10.3.1/bits/basic_string.h ****     protected:
 112:/usr/include/newlib/c++/10.3.1/bits/basic_string.h ****       // type used for positions in insert, erase etc.
 113:/usr/include/newlib/c++/10.3.1/bits/basic_string.h **** #if __cplusplus < 201103L
 114:/usr/include/newlib/c++/10.3.1/bits/basic_string.h ****       typedef iterator __const_iterator;
 115:/usr/include/newlib/c++/10.3.1/bits/basic_string.h **** #else
 116:/usr/include/newlib/c++/10.3.1/bits/basic_string.h ****       typedef const_iterator __const_iterator;
 117:/usr/include/newlib/c++/10.3.1/bits/basic_string.h **** #endif
 118:/usr/include/newlib/c++/10.3.1/bits/basic_string.h **** 
 119:/usr/include/newlib/c++/10.3.1/bits/basic_string.h ****     private:
 120:/usr/include/newlib/c++/10.3.1/bits/basic_string.h **** #if __cplusplus >= 201703L
 121:/usr/include/newlib/c++/10.3.1/bits/basic_string.h ****       // A helper type for avoiding boiler-plate.
 122:/usr/include/newlib/c++/10.3.1/bits/basic_string.h ****       typedef basic_string_view<_CharT, _Traits> __sv_type;
 123:/usr/include/newlib/c++/10.3.1/bits/basic_string.h **** 
 124:/usr/include/newlib/c++/10.3.1/bits/basic_string.h ****       template<typename _Tp, typename _Res>
 125:/usr/include/newlib/c++/10.3.1/bits/basic_string.h **** 	using _If_sv = enable_if_t<
 126:/usr/include/newlib/c++/10.3.1/bits/basic_string.h **** 	  __and_<is_convertible<const _Tp&, __sv_type>,
 127:/usr/include/newlib/c++/10.3.1/bits/basic_string.h **** 		 __not_<is_convertible<const _Tp*, const basic_string*>>,
 128:/usr/include/newlib/c++/10.3.1/bits/basic_string.h **** 		 __not_<is_convertible<const _Tp&, const _CharT*>>>::value,
 129:/usr/include/newlib/c++/10.3.1/bits/basic_string.h **** 	  _Res>;
 130:/usr/include/newlib/c++/10.3.1/bits/basic_string.h **** 
 131:/usr/include/newlib/c++/10.3.1/bits/basic_string.h ****       // Allows an implicit conversion to __sv_type.
 132:/usr/include/newlib/c++/10.3.1/bits/basic_string.h ****       static __sv_type
 133:/usr/include/newlib/c++/10.3.1/bits/basic_string.h ****       _S_to_string_view(__sv_type __svt) noexcept
 134:/usr/include/newlib/c++/10.3.1/bits/basic_string.h ****       { return __svt; }
 135:/usr/include/newlib/c++/10.3.1/bits/basic_string.h **** 
 136:/usr/include/newlib/c++/10.3.1/bits/basic_string.h ****       // Wraps a string_view by explicit conversion and thus
 137:/usr/include/newlib/c++/10.3.1/bits/basic_string.h ****       // allows to add an internal constructor that does not
 138:/usr/include/newlib/c++/10.3.1/bits/basic_string.h ****       // participate in overload resolution when a string_view
 139:/usr/include/newlib/c++/10.3.1/bits/basic_string.h ****       // is provided.
 140:/usr/include/newlib/c++/10.3.1/bits/basic_string.h ****       struct __sv_wrapper
 141:/usr/include/newlib/c++/10.3.1/bits/basic_string.h ****       {
 142:/usr/include/newlib/c++/10.3.1/bits/basic_string.h **** 	explicit __sv_wrapper(__sv_type __sv) noexcept : _M_sv(__sv) { }
 143:/usr/include/newlib/c++/10.3.1/bits/basic_string.h **** 	__sv_type _M_sv;
 144:/usr/include/newlib/c++/10.3.1/bits/basic_string.h ****       };
 145:/usr/include/newlib/c++/10.3.1/bits/basic_string.h **** 
 146:/usr/include/newlib/c++/10.3.1/bits/basic_string.h ****       /**
 147:/usr/include/newlib/c++/10.3.1/bits/basic_string.h ****        *  @brief  Only internally used: Construct string from a string view
 148:/usr/include/newlib/c++/10.3.1/bits/basic_string.h ****        *          wrapper.
 149:/usr/include/newlib/c++/10.3.1/bits/basic_string.h ****        *  @param  __svw  string view wrapper.
 150:/usr/include/newlib/c++/10.3.1/bits/basic_string.h ****        *  @param  __a  Allocator to use.
 151:/usr/include/newlib/c++/10.3.1/bits/basic_string.h ****        */
 152:/usr/include/newlib/c++/10.3.1/bits/basic_string.h ****       explicit
 153:/usr/include/newlib/c++/10.3.1/bits/basic_string.h ****       basic_string(__sv_wrapper __svw, const _Alloc& __a)
 154:/usr/include/newlib/c++/10.3.1/bits/basic_string.h ****       : basic_string(__svw._M_sv.data(), __svw._M_sv.size(), __a) { }
 155:/usr/include/newlib/c++/10.3.1/bits/basic_string.h **** #endif
 156:/usr/include/newlib/c++/10.3.1/bits/basic_string.h **** 
 157:/usr/include/newlib/c++/10.3.1/bits/basic_string.h ****       // Use empty-base optimization: http://www.cantrip.org/emptyopt.html
 158:/usr/include/newlib/c++/10.3.1/bits/basic_string.h ****       struct _Alloc_hider : allocator_type // TODO check __is_final
 159:/usr/include/newlib/c++/10.3.1/bits/basic_string.h ****       {
 160:/usr/include/newlib/c++/10.3.1/bits/basic_string.h **** #if __cplusplus < 201103L
 161:/usr/include/newlib/c++/10.3.1/bits/basic_string.h **** 	_Alloc_hider(pointer __dat, const _Alloc& __a = _Alloc())
 162:/usr/include/newlib/c++/10.3.1/bits/basic_string.h **** 	: allocator_type(__a), _M_p(__dat) { }
 163:/usr/include/newlib/c++/10.3.1/bits/basic_string.h **** #else
 164:/usr/include/newlib/c++/10.3.1/bits/basic_string.h **** 	_Alloc_hider(pointer __dat, const _Alloc& __a)
 165:/usr/include/newlib/c++/10.3.1/bits/basic_string.h **** 	: allocator_type(__a), _M_p(__dat) { }
ARM GAS  /tmp/ccRLs6kU.s 			page 17


 166:/usr/include/newlib/c++/10.3.1/bits/basic_string.h **** 
 167:/usr/include/newlib/c++/10.3.1/bits/basic_string.h **** 	_Alloc_hider(pointer __dat, _Alloc&& __a = _Alloc())
 168:/usr/include/newlib/c++/10.3.1/bits/basic_string.h **** 	: allocator_type(std::move(__a)), _M_p(__dat) { }
 169:/usr/include/newlib/c++/10.3.1/bits/basic_string.h **** #endif
 170:/usr/include/newlib/c++/10.3.1/bits/basic_string.h **** 
 171:/usr/include/newlib/c++/10.3.1/bits/basic_string.h **** 	pointer _M_p; // The actual data.
 172:/usr/include/newlib/c++/10.3.1/bits/basic_string.h ****       };
 173:/usr/include/newlib/c++/10.3.1/bits/basic_string.h **** 
 174:/usr/include/newlib/c++/10.3.1/bits/basic_string.h ****       _Alloc_hider	_M_dataplus;
 175:/usr/include/newlib/c++/10.3.1/bits/basic_string.h ****       size_type		_M_string_length;
 176:/usr/include/newlib/c++/10.3.1/bits/basic_string.h **** 
 177:/usr/include/newlib/c++/10.3.1/bits/basic_string.h ****       enum { _S_local_capacity = 15 / sizeof(_CharT) };
 178:/usr/include/newlib/c++/10.3.1/bits/basic_string.h **** 
 179:/usr/include/newlib/c++/10.3.1/bits/basic_string.h ****       union
 180:/usr/include/newlib/c++/10.3.1/bits/basic_string.h ****       {
 181:/usr/include/newlib/c++/10.3.1/bits/basic_string.h **** 	_CharT           _M_local_buf[_S_local_capacity + 1];
 182:/usr/include/newlib/c++/10.3.1/bits/basic_string.h **** 	size_type        _M_allocated_capacity;
 183:/usr/include/newlib/c++/10.3.1/bits/basic_string.h ****       };
 184:/usr/include/newlib/c++/10.3.1/bits/basic_string.h **** 
 185:/usr/include/newlib/c++/10.3.1/bits/basic_string.h ****       void
 186:/usr/include/newlib/c++/10.3.1/bits/basic_string.h ****       _M_data(pointer __p)
 187:/usr/include/newlib/c++/10.3.1/bits/basic_string.h ****       { _M_dataplus._M_p = __p; }
 188:/usr/include/newlib/c++/10.3.1/bits/basic_string.h **** 
 189:/usr/include/newlib/c++/10.3.1/bits/basic_string.h ****       void
 190:/usr/include/newlib/c++/10.3.1/bits/basic_string.h ****       _M_length(size_type __length)
 191:/usr/include/newlib/c++/10.3.1/bits/basic_string.h ****       { _M_string_length = __length; }
 192:/usr/include/newlib/c++/10.3.1/bits/basic_string.h **** 
 193:/usr/include/newlib/c++/10.3.1/bits/basic_string.h ****       pointer
 194:/usr/include/newlib/c++/10.3.1/bits/basic_string.h ****       _M_data() const
 311              		.loc 4 194 7 is_stmt 1 view .LVU54
 312              	.LBB371:
 195:/usr/include/newlib/c++/10.3.1/bits/basic_string.h ****       { return _M_dataplus._M_p; }
 313              		.loc 4 195 28 is_stmt 0 view .LVU55
 314 0012 2868     		ldr	r0, [r5]
 315              	.LVL21:
 316              		.loc 4 195 28 view .LVU56
 317              	.LBE371:
 318              	.LBE370:
 319              	.LBB372:
 320              	.LBI372:
 196:/usr/include/newlib/c++/10.3.1/bits/basic_string.h **** 
 197:/usr/include/newlib/c++/10.3.1/bits/basic_string.h ****       pointer
 198:/usr/include/newlib/c++/10.3.1/bits/basic_string.h ****       _M_local_data()
 199:/usr/include/newlib/c++/10.3.1/bits/basic_string.h ****       {
 200:/usr/include/newlib/c++/10.3.1/bits/basic_string.h **** #if __cplusplus >= 201103L
 201:/usr/include/newlib/c++/10.3.1/bits/basic_string.h **** 	return std::pointer_traits<pointer>::pointer_to(*_M_local_buf);
 202:/usr/include/newlib/c++/10.3.1/bits/basic_string.h **** #else
 203:/usr/include/newlib/c++/10.3.1/bits/basic_string.h **** 	return pointer(_M_local_buf);
 204:/usr/include/newlib/c++/10.3.1/bits/basic_string.h **** #endif
 205:/usr/include/newlib/c++/10.3.1/bits/basic_string.h ****       }
 206:/usr/include/newlib/c++/10.3.1/bits/basic_string.h **** 
 207:/usr/include/newlib/c++/10.3.1/bits/basic_string.h ****       const_pointer
 208:/usr/include/newlib/c++/10.3.1/bits/basic_string.h ****       _M_local_data() const
 209:/usr/include/newlib/c++/10.3.1/bits/basic_string.h ****       {
 210:/usr/include/newlib/c++/10.3.1/bits/basic_string.h **** #if __cplusplus >= 201103L
 211:/usr/include/newlib/c++/10.3.1/bits/basic_string.h **** 	return std::pointer_traits<const_pointer>::pointer_to(*_M_local_buf);
 212:/usr/include/newlib/c++/10.3.1/bits/basic_string.h **** #else
ARM GAS  /tmp/ccRLs6kU.s 			page 18


 213:/usr/include/newlib/c++/10.3.1/bits/basic_string.h **** 	return const_pointer(_M_local_buf);
 214:/usr/include/newlib/c++/10.3.1/bits/basic_string.h **** #endif
 215:/usr/include/newlib/c++/10.3.1/bits/basic_string.h ****       }
 216:/usr/include/newlib/c++/10.3.1/bits/basic_string.h **** 
 217:/usr/include/newlib/c++/10.3.1/bits/basic_string.h ****       void
 218:/usr/include/newlib/c++/10.3.1/bits/basic_string.h ****       _M_capacity(size_type __capacity)
 219:/usr/include/newlib/c++/10.3.1/bits/basic_string.h ****       { _M_allocated_capacity = __capacity; }
 220:/usr/include/newlib/c++/10.3.1/bits/basic_string.h **** 
 221:/usr/include/newlib/c++/10.3.1/bits/basic_string.h ****       void
 222:/usr/include/newlib/c++/10.3.1/bits/basic_string.h ****       _M_set_length(size_type __n)
 223:/usr/include/newlib/c++/10.3.1/bits/basic_string.h ****       {
 224:/usr/include/newlib/c++/10.3.1/bits/basic_string.h **** 	_M_length(__n);
 225:/usr/include/newlib/c++/10.3.1/bits/basic_string.h **** 	traits_type::assign(_M_data()[__n], _CharT());
 226:/usr/include/newlib/c++/10.3.1/bits/basic_string.h ****       }
 227:/usr/include/newlib/c++/10.3.1/bits/basic_string.h **** 
 228:/usr/include/newlib/c++/10.3.1/bits/basic_string.h ****       bool
 229:/usr/include/newlib/c++/10.3.1/bits/basic_string.h ****       _M_is_local() const
 230:/usr/include/newlib/c++/10.3.1/bits/basic_string.h ****       { return _M_data() == _M_local_data(); }
 231:/usr/include/newlib/c++/10.3.1/bits/basic_string.h **** 
 232:/usr/include/newlib/c++/10.3.1/bits/basic_string.h ****       // Create & Destroy
 233:/usr/include/newlib/c++/10.3.1/bits/basic_string.h ****       pointer
 234:/usr/include/newlib/c++/10.3.1/bits/basic_string.h ****       _M_create(size_type&, size_type);
 235:/usr/include/newlib/c++/10.3.1/bits/basic_string.h **** 
 236:/usr/include/newlib/c++/10.3.1/bits/basic_string.h ****       void
 237:/usr/include/newlib/c++/10.3.1/bits/basic_string.h ****       _M_dispose()
 238:/usr/include/newlib/c++/10.3.1/bits/basic_string.h ****       {
 239:/usr/include/newlib/c++/10.3.1/bits/basic_string.h **** 	if (!_M_is_local())
 240:/usr/include/newlib/c++/10.3.1/bits/basic_string.h **** 	  _M_destroy(_M_allocated_capacity);
 241:/usr/include/newlib/c++/10.3.1/bits/basic_string.h ****       }
 242:/usr/include/newlib/c++/10.3.1/bits/basic_string.h **** 
 243:/usr/include/newlib/c++/10.3.1/bits/basic_string.h ****       void
 244:/usr/include/newlib/c++/10.3.1/bits/basic_string.h ****       _M_destroy(size_type __size) throw()
 245:/usr/include/newlib/c++/10.3.1/bits/basic_string.h ****       { _Alloc_traits::deallocate(_M_get_allocator(), _M_data(), __size + 1); }
 246:/usr/include/newlib/c++/10.3.1/bits/basic_string.h **** 
 247:/usr/include/newlib/c++/10.3.1/bits/basic_string.h ****       // _M_construct_aux is used to implement the 21.3.1 para 15 which
 248:/usr/include/newlib/c++/10.3.1/bits/basic_string.h ****       // requires special behaviour if _InIterator is an integral type
 249:/usr/include/newlib/c++/10.3.1/bits/basic_string.h ****       template<typename _InIterator>
 250:/usr/include/newlib/c++/10.3.1/bits/basic_string.h ****         void
 251:/usr/include/newlib/c++/10.3.1/bits/basic_string.h ****         _M_construct_aux(_InIterator __beg, _InIterator __end,
 252:/usr/include/newlib/c++/10.3.1/bits/basic_string.h **** 			 std::__false_type)
 253:/usr/include/newlib/c++/10.3.1/bits/basic_string.h **** 	{
 254:/usr/include/newlib/c++/10.3.1/bits/basic_string.h ****           typedef typename iterator_traits<_InIterator>::iterator_category _Tag;
 255:/usr/include/newlib/c++/10.3.1/bits/basic_string.h ****           _M_construct(__beg, __end, _Tag());
 256:/usr/include/newlib/c++/10.3.1/bits/basic_string.h **** 	}
 257:/usr/include/newlib/c++/10.3.1/bits/basic_string.h **** 
 258:/usr/include/newlib/c++/10.3.1/bits/basic_string.h ****       // _GLIBCXX_RESOLVE_LIB_DEFECTS
 259:/usr/include/newlib/c++/10.3.1/bits/basic_string.h ****       // 438. Ambiguity in the "do the right thing" clause
 260:/usr/include/newlib/c++/10.3.1/bits/basic_string.h ****       template<typename _Integer>
 261:/usr/include/newlib/c++/10.3.1/bits/basic_string.h ****         void
 262:/usr/include/newlib/c++/10.3.1/bits/basic_string.h ****         _M_construct_aux(_Integer __beg, _Integer __end, std::__true_type)
 263:/usr/include/newlib/c++/10.3.1/bits/basic_string.h **** 	{ _M_construct_aux_2(static_cast<size_type>(__beg), __end); }
 264:/usr/include/newlib/c++/10.3.1/bits/basic_string.h **** 
 265:/usr/include/newlib/c++/10.3.1/bits/basic_string.h ****       void
 266:/usr/include/newlib/c++/10.3.1/bits/basic_string.h ****       _M_construct_aux_2(size_type __req, _CharT __c)
 267:/usr/include/newlib/c++/10.3.1/bits/basic_string.h ****       { _M_construct(__req, __c); }
 268:/usr/include/newlib/c++/10.3.1/bits/basic_string.h **** 
 269:/usr/include/newlib/c++/10.3.1/bits/basic_string.h ****       template<typename _InIterator>
ARM GAS  /tmp/ccRLs6kU.s 			page 19


 270:/usr/include/newlib/c++/10.3.1/bits/basic_string.h ****         void
 271:/usr/include/newlib/c++/10.3.1/bits/basic_string.h ****         _M_construct(_InIterator __beg, _InIterator __end)
 272:/usr/include/newlib/c++/10.3.1/bits/basic_string.h **** 	{
 273:/usr/include/newlib/c++/10.3.1/bits/basic_string.h **** 	  typedef typename std::__is_integer<_InIterator>::__type _Integral;
 274:/usr/include/newlib/c++/10.3.1/bits/basic_string.h **** 	  _M_construct_aux(__beg, __end, _Integral());
 275:/usr/include/newlib/c++/10.3.1/bits/basic_string.h ****         }
 276:/usr/include/newlib/c++/10.3.1/bits/basic_string.h **** 
 277:/usr/include/newlib/c++/10.3.1/bits/basic_string.h ****       // For Input Iterators, used in istreambuf_iterators, etc.
 278:/usr/include/newlib/c++/10.3.1/bits/basic_string.h ****       template<typename _InIterator>
 279:/usr/include/newlib/c++/10.3.1/bits/basic_string.h ****         void
 280:/usr/include/newlib/c++/10.3.1/bits/basic_string.h ****         _M_construct(_InIterator __beg, _InIterator __end,
 281:/usr/include/newlib/c++/10.3.1/bits/basic_string.h **** 		     std::input_iterator_tag);
 282:/usr/include/newlib/c++/10.3.1/bits/basic_string.h **** 
 283:/usr/include/newlib/c++/10.3.1/bits/basic_string.h ****       // For forward_iterators up to random_access_iterators, used for
 284:/usr/include/newlib/c++/10.3.1/bits/basic_string.h ****       // string::iterator, _CharT*, etc.
 285:/usr/include/newlib/c++/10.3.1/bits/basic_string.h ****       template<typename _FwdIterator>
 286:/usr/include/newlib/c++/10.3.1/bits/basic_string.h ****         void
 287:/usr/include/newlib/c++/10.3.1/bits/basic_string.h ****         _M_construct(_FwdIterator __beg, _FwdIterator __end,
 288:/usr/include/newlib/c++/10.3.1/bits/basic_string.h **** 		     std::forward_iterator_tag);
 289:/usr/include/newlib/c++/10.3.1/bits/basic_string.h **** 
 290:/usr/include/newlib/c++/10.3.1/bits/basic_string.h ****       void
 291:/usr/include/newlib/c++/10.3.1/bits/basic_string.h ****       _M_construct(size_type __req, _CharT __c);
 292:/usr/include/newlib/c++/10.3.1/bits/basic_string.h **** 
 293:/usr/include/newlib/c++/10.3.1/bits/basic_string.h ****       allocator_type&
 294:/usr/include/newlib/c++/10.3.1/bits/basic_string.h ****       _M_get_allocator()
 295:/usr/include/newlib/c++/10.3.1/bits/basic_string.h ****       { return _M_dataplus; }
 296:/usr/include/newlib/c++/10.3.1/bits/basic_string.h **** 
 297:/usr/include/newlib/c++/10.3.1/bits/basic_string.h ****       const allocator_type&
 298:/usr/include/newlib/c++/10.3.1/bits/basic_string.h ****       _M_get_allocator() const
 299:/usr/include/newlib/c++/10.3.1/bits/basic_string.h ****       { return _M_dataplus; }
 300:/usr/include/newlib/c++/10.3.1/bits/basic_string.h **** 
 301:/usr/include/newlib/c++/10.3.1/bits/basic_string.h ****     private:
 302:/usr/include/newlib/c++/10.3.1/bits/basic_string.h **** 
 303:/usr/include/newlib/c++/10.3.1/bits/basic_string.h **** #ifdef _GLIBCXX_DISAMBIGUATE_REPLACE_INST
 304:/usr/include/newlib/c++/10.3.1/bits/basic_string.h ****       // The explicit instantiations in misc-inst.cc require this due to
 305:/usr/include/newlib/c++/10.3.1/bits/basic_string.h ****       // https://gcc.gnu.org/bugzilla/show_bug.cgi?id=64063
 306:/usr/include/newlib/c++/10.3.1/bits/basic_string.h ****       template<typename _Tp, bool _Requires =
 307:/usr/include/newlib/c++/10.3.1/bits/basic_string.h **** 	       !__are_same<_Tp, _CharT*>::__value
 308:/usr/include/newlib/c++/10.3.1/bits/basic_string.h **** 	       && !__are_same<_Tp, const _CharT*>::__value
 309:/usr/include/newlib/c++/10.3.1/bits/basic_string.h **** 	       && !__are_same<_Tp, iterator>::__value
 310:/usr/include/newlib/c++/10.3.1/bits/basic_string.h **** 	       && !__are_same<_Tp, const_iterator>::__value>
 311:/usr/include/newlib/c++/10.3.1/bits/basic_string.h **** 	struct __enable_if_not_native_iterator
 312:/usr/include/newlib/c++/10.3.1/bits/basic_string.h **** 	{ typedef basic_string& __type; };
 313:/usr/include/newlib/c++/10.3.1/bits/basic_string.h ****       template<typename _Tp>
 314:/usr/include/newlib/c++/10.3.1/bits/basic_string.h **** 	struct __enable_if_not_native_iterator<_Tp, false> { };
 315:/usr/include/newlib/c++/10.3.1/bits/basic_string.h **** #endif
 316:/usr/include/newlib/c++/10.3.1/bits/basic_string.h **** 
 317:/usr/include/newlib/c++/10.3.1/bits/basic_string.h ****       size_type
 318:/usr/include/newlib/c++/10.3.1/bits/basic_string.h ****       _M_check(size_type __pos, const char* __s) const
 319:/usr/include/newlib/c++/10.3.1/bits/basic_string.h ****       {
 320:/usr/include/newlib/c++/10.3.1/bits/basic_string.h **** 	if (__pos > this->size())
 321:/usr/include/newlib/c++/10.3.1/bits/basic_string.h **** 	  __throw_out_of_range_fmt(__N("%s: __pos (which is %zu) > "
 322:/usr/include/newlib/c++/10.3.1/bits/basic_string.h **** 				       "this->size() (which is %zu)"),
 323:/usr/include/newlib/c++/10.3.1/bits/basic_string.h **** 				   __s, __pos, this->size());
 324:/usr/include/newlib/c++/10.3.1/bits/basic_string.h **** 	return __pos;
 325:/usr/include/newlib/c++/10.3.1/bits/basic_string.h ****       }
 326:/usr/include/newlib/c++/10.3.1/bits/basic_string.h **** 
ARM GAS  /tmp/ccRLs6kU.s 			page 20


 327:/usr/include/newlib/c++/10.3.1/bits/basic_string.h ****       void
 328:/usr/include/newlib/c++/10.3.1/bits/basic_string.h ****       _M_check_length(size_type __n1, size_type __n2, const char* __s) const
 329:/usr/include/newlib/c++/10.3.1/bits/basic_string.h ****       {
 330:/usr/include/newlib/c++/10.3.1/bits/basic_string.h **** 	if (this->max_size() - (this->size() - __n1) < __n2)
 331:/usr/include/newlib/c++/10.3.1/bits/basic_string.h **** 	  __throw_length_error(__N(__s));
 332:/usr/include/newlib/c++/10.3.1/bits/basic_string.h ****       }
 333:/usr/include/newlib/c++/10.3.1/bits/basic_string.h **** 
 334:/usr/include/newlib/c++/10.3.1/bits/basic_string.h **** 
 335:/usr/include/newlib/c++/10.3.1/bits/basic_string.h ****       // NB: _M_limit doesn't check for a bad __pos value.
 336:/usr/include/newlib/c++/10.3.1/bits/basic_string.h ****       size_type
 337:/usr/include/newlib/c++/10.3.1/bits/basic_string.h ****       _M_limit(size_type __pos, size_type __off) const _GLIBCXX_NOEXCEPT
 338:/usr/include/newlib/c++/10.3.1/bits/basic_string.h ****       {
 339:/usr/include/newlib/c++/10.3.1/bits/basic_string.h **** 	const bool __testoff =  __off < this->size() - __pos;
 340:/usr/include/newlib/c++/10.3.1/bits/basic_string.h **** 	return __testoff ? __off : this->size() - __pos;
 341:/usr/include/newlib/c++/10.3.1/bits/basic_string.h ****       }
 342:/usr/include/newlib/c++/10.3.1/bits/basic_string.h **** 
 343:/usr/include/newlib/c++/10.3.1/bits/basic_string.h ****       // True if _Rep and source do not overlap.
 344:/usr/include/newlib/c++/10.3.1/bits/basic_string.h ****       bool
 345:/usr/include/newlib/c++/10.3.1/bits/basic_string.h ****       _M_disjunct(const _CharT* __s) const _GLIBCXX_NOEXCEPT
 346:/usr/include/newlib/c++/10.3.1/bits/basic_string.h ****       {
 347:/usr/include/newlib/c++/10.3.1/bits/basic_string.h **** 	return (less<const _CharT*>()(__s, _M_data())
 348:/usr/include/newlib/c++/10.3.1/bits/basic_string.h **** 		|| less<const _CharT*>()(_M_data() + this->size(), __s));
 349:/usr/include/newlib/c++/10.3.1/bits/basic_string.h ****       }
 350:/usr/include/newlib/c++/10.3.1/bits/basic_string.h **** 
 351:/usr/include/newlib/c++/10.3.1/bits/basic_string.h ****       // When __n = 1 way faster than the general multichar
 352:/usr/include/newlib/c++/10.3.1/bits/basic_string.h ****       // traits_type::copy/move/assign.
 353:/usr/include/newlib/c++/10.3.1/bits/basic_string.h ****       static void
 354:/usr/include/newlib/c++/10.3.1/bits/basic_string.h ****       _S_copy(_CharT* __d, const _CharT* __s, size_type __n)
 355:/usr/include/newlib/c++/10.3.1/bits/basic_string.h ****       {
 356:/usr/include/newlib/c++/10.3.1/bits/basic_string.h **** 	if (__n == 1)
 357:/usr/include/newlib/c++/10.3.1/bits/basic_string.h **** 	  traits_type::assign(*__d, *__s);
 358:/usr/include/newlib/c++/10.3.1/bits/basic_string.h **** 	else
 359:/usr/include/newlib/c++/10.3.1/bits/basic_string.h **** 	  traits_type::copy(__d, __s, __n);
 360:/usr/include/newlib/c++/10.3.1/bits/basic_string.h ****       }
 361:/usr/include/newlib/c++/10.3.1/bits/basic_string.h **** 
 362:/usr/include/newlib/c++/10.3.1/bits/basic_string.h ****       static void
 363:/usr/include/newlib/c++/10.3.1/bits/basic_string.h ****       _S_move(_CharT* __d, const _CharT* __s, size_type __n)
 364:/usr/include/newlib/c++/10.3.1/bits/basic_string.h ****       {
 365:/usr/include/newlib/c++/10.3.1/bits/basic_string.h **** 	if (__n == 1)
 366:/usr/include/newlib/c++/10.3.1/bits/basic_string.h **** 	  traits_type::assign(*__d, *__s);
 367:/usr/include/newlib/c++/10.3.1/bits/basic_string.h **** 	else
 368:/usr/include/newlib/c++/10.3.1/bits/basic_string.h **** 	  traits_type::move(__d, __s, __n);
 369:/usr/include/newlib/c++/10.3.1/bits/basic_string.h ****       }
 370:/usr/include/newlib/c++/10.3.1/bits/basic_string.h **** 
 371:/usr/include/newlib/c++/10.3.1/bits/basic_string.h ****       static void
 372:/usr/include/newlib/c++/10.3.1/bits/basic_string.h ****       _S_assign(_CharT* __d, size_type __n, _CharT __c)
 373:/usr/include/newlib/c++/10.3.1/bits/basic_string.h ****       {
 374:/usr/include/newlib/c++/10.3.1/bits/basic_string.h **** 	if (__n == 1)
 375:/usr/include/newlib/c++/10.3.1/bits/basic_string.h **** 	  traits_type::assign(*__d, __c);
 376:/usr/include/newlib/c++/10.3.1/bits/basic_string.h **** 	else
 377:/usr/include/newlib/c++/10.3.1/bits/basic_string.h **** 	  traits_type::assign(__d, __n, __c);
 378:/usr/include/newlib/c++/10.3.1/bits/basic_string.h ****       }
 379:/usr/include/newlib/c++/10.3.1/bits/basic_string.h **** 
 380:/usr/include/newlib/c++/10.3.1/bits/basic_string.h ****       // _S_copy_chars is a separate template to permit specialization
 381:/usr/include/newlib/c++/10.3.1/bits/basic_string.h ****       // to optimize for the common case of pointers as iterators.
 382:/usr/include/newlib/c++/10.3.1/bits/basic_string.h ****       template<class _Iterator>
 383:/usr/include/newlib/c++/10.3.1/bits/basic_string.h ****         static void
ARM GAS  /tmp/ccRLs6kU.s 			page 21


 384:/usr/include/newlib/c++/10.3.1/bits/basic_string.h ****         _S_copy_chars(_CharT* __p, _Iterator __k1, _Iterator __k2)
 385:/usr/include/newlib/c++/10.3.1/bits/basic_string.h ****         {
 386:/usr/include/newlib/c++/10.3.1/bits/basic_string.h **** 	  for (; __k1 != __k2; ++__k1, (void)++__p)
 387:/usr/include/newlib/c++/10.3.1/bits/basic_string.h **** 	    traits_type::assign(*__p, *__k1); // These types are off.
 388:/usr/include/newlib/c++/10.3.1/bits/basic_string.h **** 	}
 389:/usr/include/newlib/c++/10.3.1/bits/basic_string.h **** 
 390:/usr/include/newlib/c++/10.3.1/bits/basic_string.h ****       static void
 391:/usr/include/newlib/c++/10.3.1/bits/basic_string.h ****       _S_copy_chars(_CharT* __p, iterator __k1, iterator __k2) _GLIBCXX_NOEXCEPT
 392:/usr/include/newlib/c++/10.3.1/bits/basic_string.h ****       { _S_copy_chars(__p, __k1.base(), __k2.base()); }
 393:/usr/include/newlib/c++/10.3.1/bits/basic_string.h **** 
 394:/usr/include/newlib/c++/10.3.1/bits/basic_string.h ****       static void
 395:/usr/include/newlib/c++/10.3.1/bits/basic_string.h ****       _S_copy_chars(_CharT* __p, const_iterator __k1, const_iterator __k2)
 396:/usr/include/newlib/c++/10.3.1/bits/basic_string.h ****       _GLIBCXX_NOEXCEPT
 397:/usr/include/newlib/c++/10.3.1/bits/basic_string.h ****       { _S_copy_chars(__p, __k1.base(), __k2.base()); }
 398:/usr/include/newlib/c++/10.3.1/bits/basic_string.h **** 
 399:/usr/include/newlib/c++/10.3.1/bits/basic_string.h ****       static void
 400:/usr/include/newlib/c++/10.3.1/bits/basic_string.h ****       _S_copy_chars(_CharT* __p, _CharT* __k1, _CharT* __k2) _GLIBCXX_NOEXCEPT
 401:/usr/include/newlib/c++/10.3.1/bits/basic_string.h ****       { _S_copy(__p, __k1, __k2 - __k1); }
 402:/usr/include/newlib/c++/10.3.1/bits/basic_string.h **** 
 403:/usr/include/newlib/c++/10.3.1/bits/basic_string.h ****       static void
 404:/usr/include/newlib/c++/10.3.1/bits/basic_string.h ****       _S_copy_chars(_CharT* __p, const _CharT* __k1, const _CharT* __k2)
 321              		.loc 4 404 7 is_stmt 1 view .LVU57
 322              	.LBB373:
 323              	.LBI373:
 354:/usr/include/newlib/c++/10.3.1/bits/basic_string.h ****       {
 324              		.loc 4 354 7 view .LVU58
 325              	.LBB374:
 356:/usr/include/newlib/c++/10.3.1/bits/basic_string.h **** 	  traits_type::assign(*__d, *__s);
 326              		.loc 4 356 2 is_stmt 0 view .LVU59
 327 0014 012C     		cmp	r4, #1
 328 0016 13D0     		beq	.L26
 329              	.LVL22:
 330              	.LBB375:
 331              	.LBI375:
 332              		.file 5 "/usr/include/newlib/c++/10.3.1/bits/char_traits.h"
   1:/usr/include/newlib/c++/10.3.1/bits/char_traits.h **** // Character Traits for use by standard string and iostream -*- C++ -*-
   2:/usr/include/newlib/c++/10.3.1/bits/char_traits.h **** 
   3:/usr/include/newlib/c++/10.3.1/bits/char_traits.h **** // Copyright (C) 1997-2020 Free Software Foundation, Inc.
   4:/usr/include/newlib/c++/10.3.1/bits/char_traits.h **** //
   5:/usr/include/newlib/c++/10.3.1/bits/char_traits.h **** // This file is part of the GNU ISO C++ Library.  This library is free
   6:/usr/include/newlib/c++/10.3.1/bits/char_traits.h **** // software; you can redistribute it and/or modify it under the
   7:/usr/include/newlib/c++/10.3.1/bits/char_traits.h **** // terms of the GNU General Public License as published by the
   8:/usr/include/newlib/c++/10.3.1/bits/char_traits.h **** // Free Software Foundation; either version 3, or (at your option)
   9:/usr/include/newlib/c++/10.3.1/bits/char_traits.h **** // any later version.
  10:/usr/include/newlib/c++/10.3.1/bits/char_traits.h **** 
  11:/usr/include/newlib/c++/10.3.1/bits/char_traits.h **** // This library is distributed in the hope that it will be useful,
  12:/usr/include/newlib/c++/10.3.1/bits/char_traits.h **** // but WITHOUT ANY WARRANTY; without even the implied warranty of
  13:/usr/include/newlib/c++/10.3.1/bits/char_traits.h **** // MERCHANTABILITY or FITNESS FOR A PARTICULAR PURPOSE.  See the
  14:/usr/include/newlib/c++/10.3.1/bits/char_traits.h **** // GNU General Public License for more details.
  15:/usr/include/newlib/c++/10.3.1/bits/char_traits.h **** 
  16:/usr/include/newlib/c++/10.3.1/bits/char_traits.h **** // Under Section 7 of GPL version 3, you are granted additional
  17:/usr/include/newlib/c++/10.3.1/bits/char_traits.h **** // permissions described in the GCC Runtime Library Exception, version
  18:/usr/include/newlib/c++/10.3.1/bits/char_traits.h **** // 3.1, as published by the Free Software Foundation.
  19:/usr/include/newlib/c++/10.3.1/bits/char_traits.h **** 
  20:/usr/include/newlib/c++/10.3.1/bits/char_traits.h **** // You should have received a copy of the GNU General Public License and
  21:/usr/include/newlib/c++/10.3.1/bits/char_traits.h **** // a copy of the GCC Runtime Library Exception along with this program;
  22:/usr/include/newlib/c++/10.3.1/bits/char_traits.h **** // see the files COPYING3 and COPYING.RUNTIME respectively.  If not, see
ARM GAS  /tmp/ccRLs6kU.s 			page 22


  23:/usr/include/newlib/c++/10.3.1/bits/char_traits.h **** // <http://www.gnu.org/licenses/>.
  24:/usr/include/newlib/c++/10.3.1/bits/char_traits.h **** 
  25:/usr/include/newlib/c++/10.3.1/bits/char_traits.h **** /** @file bits/char_traits.h
  26:/usr/include/newlib/c++/10.3.1/bits/char_traits.h ****  *  This is an internal header file, included by other library headers.
  27:/usr/include/newlib/c++/10.3.1/bits/char_traits.h ****  *  Do not attempt to use it directly. @headername{string}
  28:/usr/include/newlib/c++/10.3.1/bits/char_traits.h ****  */
  29:/usr/include/newlib/c++/10.3.1/bits/char_traits.h **** 
  30:/usr/include/newlib/c++/10.3.1/bits/char_traits.h **** //
  31:/usr/include/newlib/c++/10.3.1/bits/char_traits.h **** // ISO C++ 14882: 21  Strings library
  32:/usr/include/newlib/c++/10.3.1/bits/char_traits.h **** //
  33:/usr/include/newlib/c++/10.3.1/bits/char_traits.h **** 
  34:/usr/include/newlib/c++/10.3.1/bits/char_traits.h **** #ifndef _CHAR_TRAITS_H
  35:/usr/include/newlib/c++/10.3.1/bits/char_traits.h **** #define _CHAR_TRAITS_H 1
  36:/usr/include/newlib/c++/10.3.1/bits/char_traits.h **** 
  37:/usr/include/newlib/c++/10.3.1/bits/char_traits.h **** #pragma GCC system_header
  38:/usr/include/newlib/c++/10.3.1/bits/char_traits.h **** 
  39:/usr/include/newlib/c++/10.3.1/bits/char_traits.h **** #include <bits/stl_algobase.h>  // std::copy, std::fill_n
  40:/usr/include/newlib/c++/10.3.1/bits/char_traits.h **** #include <bits/postypes.h>      // For streampos
  41:/usr/include/newlib/c++/10.3.1/bits/char_traits.h **** #include <cwchar>               // For WEOF, wmemmove, wmemset, etc.
  42:/usr/include/newlib/c++/10.3.1/bits/char_traits.h **** #if __cplusplus > 201703L
  43:/usr/include/newlib/c++/10.3.1/bits/char_traits.h **** # include <compare>
  44:/usr/include/newlib/c++/10.3.1/bits/char_traits.h **** #endif
  45:/usr/include/newlib/c++/10.3.1/bits/char_traits.h **** 
  46:/usr/include/newlib/c++/10.3.1/bits/char_traits.h **** #ifndef _GLIBCXX_ALWAYS_INLINE
  47:/usr/include/newlib/c++/10.3.1/bits/char_traits.h **** # define _GLIBCXX_ALWAYS_INLINE inline __attribute__((__always_inline__))
  48:/usr/include/newlib/c++/10.3.1/bits/char_traits.h **** #endif
  49:/usr/include/newlib/c++/10.3.1/bits/char_traits.h **** 
  50:/usr/include/newlib/c++/10.3.1/bits/char_traits.h **** namespace __gnu_cxx _GLIBCXX_VISIBILITY(default)
  51:/usr/include/newlib/c++/10.3.1/bits/char_traits.h **** {
  52:/usr/include/newlib/c++/10.3.1/bits/char_traits.h **** _GLIBCXX_BEGIN_NAMESPACE_VERSION
  53:/usr/include/newlib/c++/10.3.1/bits/char_traits.h **** 
  54:/usr/include/newlib/c++/10.3.1/bits/char_traits.h ****   /**
  55:/usr/include/newlib/c++/10.3.1/bits/char_traits.h ****    *  @brief  Mapping from character type to associated types.
  56:/usr/include/newlib/c++/10.3.1/bits/char_traits.h ****    *
  57:/usr/include/newlib/c++/10.3.1/bits/char_traits.h ****    *  @note This is an implementation class for the generic version
  58:/usr/include/newlib/c++/10.3.1/bits/char_traits.h ****    *  of char_traits.  It defines int_type, off_type, pos_type, and
  59:/usr/include/newlib/c++/10.3.1/bits/char_traits.h ****    *  state_type.  By default these are unsigned long, streamoff,
  60:/usr/include/newlib/c++/10.3.1/bits/char_traits.h ****    *  streampos, and mbstate_t.  Users who need a different set of
  61:/usr/include/newlib/c++/10.3.1/bits/char_traits.h ****    *  types, but who don't need to change the definitions of any function
  62:/usr/include/newlib/c++/10.3.1/bits/char_traits.h ****    *  defined in char_traits, can specialize __gnu_cxx::_Char_types
  63:/usr/include/newlib/c++/10.3.1/bits/char_traits.h ****    *  while leaving __gnu_cxx::char_traits alone. */
  64:/usr/include/newlib/c++/10.3.1/bits/char_traits.h ****   template<typename _CharT>
  65:/usr/include/newlib/c++/10.3.1/bits/char_traits.h ****     struct _Char_types
  66:/usr/include/newlib/c++/10.3.1/bits/char_traits.h ****     {
  67:/usr/include/newlib/c++/10.3.1/bits/char_traits.h ****       typedef unsigned long   int_type;
  68:/usr/include/newlib/c++/10.3.1/bits/char_traits.h ****       typedef std::streampos  pos_type;
  69:/usr/include/newlib/c++/10.3.1/bits/char_traits.h ****       typedef std::streamoff  off_type;
  70:/usr/include/newlib/c++/10.3.1/bits/char_traits.h ****       typedef std::mbstate_t  state_type;
  71:/usr/include/newlib/c++/10.3.1/bits/char_traits.h ****     };
  72:/usr/include/newlib/c++/10.3.1/bits/char_traits.h **** 
  73:/usr/include/newlib/c++/10.3.1/bits/char_traits.h **** 
  74:/usr/include/newlib/c++/10.3.1/bits/char_traits.h ****   /**
  75:/usr/include/newlib/c++/10.3.1/bits/char_traits.h ****    *  @brief  Base class used to implement std::char_traits.
  76:/usr/include/newlib/c++/10.3.1/bits/char_traits.h ****    *
  77:/usr/include/newlib/c++/10.3.1/bits/char_traits.h ****    *  @note For any given actual character type, this definition is
  78:/usr/include/newlib/c++/10.3.1/bits/char_traits.h ****    *  probably wrong.  (Most of the member functions are likely to be
  79:/usr/include/newlib/c++/10.3.1/bits/char_traits.h ****    *  right, but the int_type and state_type typedefs, and the eof()
ARM GAS  /tmp/ccRLs6kU.s 			page 23


  80:/usr/include/newlib/c++/10.3.1/bits/char_traits.h ****    *  member function, are likely to be wrong.)  The reason this class
  81:/usr/include/newlib/c++/10.3.1/bits/char_traits.h ****    *  exists is so users can specialize it.  Classes in namespace std
  82:/usr/include/newlib/c++/10.3.1/bits/char_traits.h ****    *  may not be specialized for fundamental types, but classes in
  83:/usr/include/newlib/c++/10.3.1/bits/char_traits.h ****    *  namespace __gnu_cxx may be.
  84:/usr/include/newlib/c++/10.3.1/bits/char_traits.h ****    *
  85:/usr/include/newlib/c++/10.3.1/bits/char_traits.h ****    *  See https://gcc.gnu.org/onlinedocs/libstdc++/manual/strings.html#strings.string.character_typ
  86:/usr/include/newlib/c++/10.3.1/bits/char_traits.h ****    *  for advice on how to make use of this class for @a unusual character
  87:/usr/include/newlib/c++/10.3.1/bits/char_traits.h ****    *  types. Also, check out include/ext/pod_char_traits.h.  
  88:/usr/include/newlib/c++/10.3.1/bits/char_traits.h ****    */
  89:/usr/include/newlib/c++/10.3.1/bits/char_traits.h ****   template<typename _CharT>
  90:/usr/include/newlib/c++/10.3.1/bits/char_traits.h ****     struct char_traits
  91:/usr/include/newlib/c++/10.3.1/bits/char_traits.h ****     {
  92:/usr/include/newlib/c++/10.3.1/bits/char_traits.h ****       typedef _CharT                                    char_type;
  93:/usr/include/newlib/c++/10.3.1/bits/char_traits.h ****       typedef typename _Char_types<_CharT>::int_type    int_type;
  94:/usr/include/newlib/c++/10.3.1/bits/char_traits.h ****       typedef typename _Char_types<_CharT>::pos_type    pos_type;
  95:/usr/include/newlib/c++/10.3.1/bits/char_traits.h ****       typedef typename _Char_types<_CharT>::off_type    off_type;
  96:/usr/include/newlib/c++/10.3.1/bits/char_traits.h ****       typedef typename _Char_types<_CharT>::state_type  state_type;
  97:/usr/include/newlib/c++/10.3.1/bits/char_traits.h **** #if __cpp_lib_three_way_comparison
  98:/usr/include/newlib/c++/10.3.1/bits/char_traits.h ****       using comparison_category = std::strong_ordering;
  99:/usr/include/newlib/c++/10.3.1/bits/char_traits.h **** #endif
 100:/usr/include/newlib/c++/10.3.1/bits/char_traits.h **** 
 101:/usr/include/newlib/c++/10.3.1/bits/char_traits.h ****       static _GLIBCXX14_CONSTEXPR void
 102:/usr/include/newlib/c++/10.3.1/bits/char_traits.h ****       assign(char_type& __c1, const char_type& __c2)
 103:/usr/include/newlib/c++/10.3.1/bits/char_traits.h ****       { __c1 = __c2; }
 104:/usr/include/newlib/c++/10.3.1/bits/char_traits.h **** 
 105:/usr/include/newlib/c++/10.3.1/bits/char_traits.h ****       static _GLIBCXX_CONSTEXPR bool
 106:/usr/include/newlib/c++/10.3.1/bits/char_traits.h ****       eq(const char_type& __c1, const char_type& __c2)
 107:/usr/include/newlib/c++/10.3.1/bits/char_traits.h ****       { return __c1 == __c2; }
 108:/usr/include/newlib/c++/10.3.1/bits/char_traits.h **** 
 109:/usr/include/newlib/c++/10.3.1/bits/char_traits.h ****       static _GLIBCXX_CONSTEXPR bool
 110:/usr/include/newlib/c++/10.3.1/bits/char_traits.h ****       lt(const char_type& __c1, const char_type& __c2)
 111:/usr/include/newlib/c++/10.3.1/bits/char_traits.h ****       { return __c1 < __c2; }
 112:/usr/include/newlib/c++/10.3.1/bits/char_traits.h **** 
 113:/usr/include/newlib/c++/10.3.1/bits/char_traits.h ****       static _GLIBCXX14_CONSTEXPR int
 114:/usr/include/newlib/c++/10.3.1/bits/char_traits.h ****       compare(const char_type* __s1, const char_type* __s2, std::size_t __n);
 115:/usr/include/newlib/c++/10.3.1/bits/char_traits.h **** 
 116:/usr/include/newlib/c++/10.3.1/bits/char_traits.h ****       static _GLIBCXX14_CONSTEXPR std::size_t
 117:/usr/include/newlib/c++/10.3.1/bits/char_traits.h ****       length(const char_type* __s);
 118:/usr/include/newlib/c++/10.3.1/bits/char_traits.h **** 
 119:/usr/include/newlib/c++/10.3.1/bits/char_traits.h ****       static _GLIBCXX14_CONSTEXPR const char_type*
 120:/usr/include/newlib/c++/10.3.1/bits/char_traits.h ****       find(const char_type* __s, std::size_t __n, const char_type& __a);
 121:/usr/include/newlib/c++/10.3.1/bits/char_traits.h **** 
 122:/usr/include/newlib/c++/10.3.1/bits/char_traits.h ****       static _GLIBCXX20_CONSTEXPR char_type*
 123:/usr/include/newlib/c++/10.3.1/bits/char_traits.h ****       move(char_type* __s1, const char_type* __s2, std::size_t __n);
 124:/usr/include/newlib/c++/10.3.1/bits/char_traits.h **** 
 125:/usr/include/newlib/c++/10.3.1/bits/char_traits.h ****       static _GLIBCXX20_CONSTEXPR char_type*
 126:/usr/include/newlib/c++/10.3.1/bits/char_traits.h ****       copy(char_type* __s1, const char_type* __s2, std::size_t __n);
 127:/usr/include/newlib/c++/10.3.1/bits/char_traits.h **** 
 128:/usr/include/newlib/c++/10.3.1/bits/char_traits.h ****       static _GLIBCXX20_CONSTEXPR char_type*
 129:/usr/include/newlib/c++/10.3.1/bits/char_traits.h ****       assign(char_type* __s, std::size_t __n, char_type __a);
 130:/usr/include/newlib/c++/10.3.1/bits/char_traits.h **** 
 131:/usr/include/newlib/c++/10.3.1/bits/char_traits.h ****       static _GLIBCXX_CONSTEXPR char_type
 132:/usr/include/newlib/c++/10.3.1/bits/char_traits.h ****       to_char_type(const int_type& __c)
 133:/usr/include/newlib/c++/10.3.1/bits/char_traits.h ****       { return static_cast<char_type>(__c); }
 134:/usr/include/newlib/c++/10.3.1/bits/char_traits.h **** 
 135:/usr/include/newlib/c++/10.3.1/bits/char_traits.h ****       static _GLIBCXX_CONSTEXPR int_type
 136:/usr/include/newlib/c++/10.3.1/bits/char_traits.h ****       to_int_type(const char_type& __c)
ARM GAS  /tmp/ccRLs6kU.s 			page 24


 137:/usr/include/newlib/c++/10.3.1/bits/char_traits.h ****       { return static_cast<int_type>(__c); }
 138:/usr/include/newlib/c++/10.3.1/bits/char_traits.h **** 
 139:/usr/include/newlib/c++/10.3.1/bits/char_traits.h ****       static _GLIBCXX_CONSTEXPR bool
 140:/usr/include/newlib/c++/10.3.1/bits/char_traits.h ****       eq_int_type(const int_type& __c1, const int_type& __c2)
 141:/usr/include/newlib/c++/10.3.1/bits/char_traits.h ****       { return __c1 == __c2; }
 142:/usr/include/newlib/c++/10.3.1/bits/char_traits.h **** 
 143:/usr/include/newlib/c++/10.3.1/bits/char_traits.h ****       static _GLIBCXX_CONSTEXPR int_type
 144:/usr/include/newlib/c++/10.3.1/bits/char_traits.h ****       eof()
 145:/usr/include/newlib/c++/10.3.1/bits/char_traits.h ****       { return static_cast<int_type>(_GLIBCXX_STDIO_EOF); }
 146:/usr/include/newlib/c++/10.3.1/bits/char_traits.h **** 
 147:/usr/include/newlib/c++/10.3.1/bits/char_traits.h ****       static _GLIBCXX_CONSTEXPR int_type
 148:/usr/include/newlib/c++/10.3.1/bits/char_traits.h ****       not_eof(const int_type& __c)
 149:/usr/include/newlib/c++/10.3.1/bits/char_traits.h ****       { return !eq_int_type(__c, eof()) ? __c : to_int_type(char_type()); }
 150:/usr/include/newlib/c++/10.3.1/bits/char_traits.h ****     };
 151:/usr/include/newlib/c++/10.3.1/bits/char_traits.h **** 
 152:/usr/include/newlib/c++/10.3.1/bits/char_traits.h ****   template<typename _CharT>
 153:/usr/include/newlib/c++/10.3.1/bits/char_traits.h ****     _GLIBCXX14_CONSTEXPR int
 154:/usr/include/newlib/c++/10.3.1/bits/char_traits.h ****     char_traits<_CharT>::
 155:/usr/include/newlib/c++/10.3.1/bits/char_traits.h ****     compare(const char_type* __s1, const char_type* __s2, std::size_t __n)
 156:/usr/include/newlib/c++/10.3.1/bits/char_traits.h ****     {
 157:/usr/include/newlib/c++/10.3.1/bits/char_traits.h ****       for (std::size_t __i = 0; __i < __n; ++__i)
 158:/usr/include/newlib/c++/10.3.1/bits/char_traits.h **** 	if (lt(__s1[__i], __s2[__i]))
 159:/usr/include/newlib/c++/10.3.1/bits/char_traits.h **** 	  return -1;
 160:/usr/include/newlib/c++/10.3.1/bits/char_traits.h **** 	else if (lt(__s2[__i], __s1[__i]))
 161:/usr/include/newlib/c++/10.3.1/bits/char_traits.h **** 	  return 1;
 162:/usr/include/newlib/c++/10.3.1/bits/char_traits.h ****       return 0;
 163:/usr/include/newlib/c++/10.3.1/bits/char_traits.h ****     }
 164:/usr/include/newlib/c++/10.3.1/bits/char_traits.h **** 
 165:/usr/include/newlib/c++/10.3.1/bits/char_traits.h ****   template<typename _CharT>
 166:/usr/include/newlib/c++/10.3.1/bits/char_traits.h ****     _GLIBCXX14_CONSTEXPR std::size_t
 167:/usr/include/newlib/c++/10.3.1/bits/char_traits.h ****     char_traits<_CharT>::
 168:/usr/include/newlib/c++/10.3.1/bits/char_traits.h ****     length(const char_type* __p)
 169:/usr/include/newlib/c++/10.3.1/bits/char_traits.h ****     {
 170:/usr/include/newlib/c++/10.3.1/bits/char_traits.h ****       std::size_t __i = 0;
 171:/usr/include/newlib/c++/10.3.1/bits/char_traits.h ****       while (!eq(__p[__i], char_type()))
 172:/usr/include/newlib/c++/10.3.1/bits/char_traits.h ****         ++__i;
 173:/usr/include/newlib/c++/10.3.1/bits/char_traits.h ****       return __i;
 174:/usr/include/newlib/c++/10.3.1/bits/char_traits.h ****     }
 175:/usr/include/newlib/c++/10.3.1/bits/char_traits.h **** 
 176:/usr/include/newlib/c++/10.3.1/bits/char_traits.h ****   template<typename _CharT>
 177:/usr/include/newlib/c++/10.3.1/bits/char_traits.h ****     _GLIBCXX14_CONSTEXPR const typename char_traits<_CharT>::char_type*
 178:/usr/include/newlib/c++/10.3.1/bits/char_traits.h ****     char_traits<_CharT>::
 179:/usr/include/newlib/c++/10.3.1/bits/char_traits.h ****     find(const char_type* __s, std::size_t __n, const char_type& __a)
 180:/usr/include/newlib/c++/10.3.1/bits/char_traits.h ****     {
 181:/usr/include/newlib/c++/10.3.1/bits/char_traits.h ****       for (std::size_t __i = 0; __i < __n; ++__i)
 182:/usr/include/newlib/c++/10.3.1/bits/char_traits.h ****         if (eq(__s[__i], __a))
 183:/usr/include/newlib/c++/10.3.1/bits/char_traits.h ****           return __s + __i;
 184:/usr/include/newlib/c++/10.3.1/bits/char_traits.h ****       return 0;
 185:/usr/include/newlib/c++/10.3.1/bits/char_traits.h ****     }
 186:/usr/include/newlib/c++/10.3.1/bits/char_traits.h **** 
 187:/usr/include/newlib/c++/10.3.1/bits/char_traits.h ****   template<typename _CharT>
 188:/usr/include/newlib/c++/10.3.1/bits/char_traits.h ****     _GLIBCXX20_CONSTEXPR
 189:/usr/include/newlib/c++/10.3.1/bits/char_traits.h ****     typename char_traits<_CharT>::char_type*
 190:/usr/include/newlib/c++/10.3.1/bits/char_traits.h ****     char_traits<_CharT>::
 191:/usr/include/newlib/c++/10.3.1/bits/char_traits.h ****     move(char_type* __s1, const char_type* __s2, std::size_t __n)
 192:/usr/include/newlib/c++/10.3.1/bits/char_traits.h ****     {
 193:/usr/include/newlib/c++/10.3.1/bits/char_traits.h ****       if (__n == 0)
ARM GAS  /tmp/ccRLs6kU.s 			page 25


 194:/usr/include/newlib/c++/10.3.1/bits/char_traits.h **** 	return __s1;
 195:/usr/include/newlib/c++/10.3.1/bits/char_traits.h **** #ifdef __cpp_lib_is_constant_evaluated
 196:/usr/include/newlib/c++/10.3.1/bits/char_traits.h ****       if (std::is_constant_evaluated())
 197:/usr/include/newlib/c++/10.3.1/bits/char_traits.h **** 	{
 198:/usr/include/newlib/c++/10.3.1/bits/char_traits.h **** 	  if (__s1 > __s2 && __s1 < __s2 + __n)
 199:/usr/include/newlib/c++/10.3.1/bits/char_traits.h **** 	    std::copy_backward(__s2, __s2 + __n, __s1 + __n);
 200:/usr/include/newlib/c++/10.3.1/bits/char_traits.h **** 	  else
 201:/usr/include/newlib/c++/10.3.1/bits/char_traits.h **** 	    std::copy(__s2, __s2 + __n, __s1);
 202:/usr/include/newlib/c++/10.3.1/bits/char_traits.h **** 	  return __s1;
 203:/usr/include/newlib/c++/10.3.1/bits/char_traits.h **** 	}
 204:/usr/include/newlib/c++/10.3.1/bits/char_traits.h **** #endif
 205:/usr/include/newlib/c++/10.3.1/bits/char_traits.h ****       return static_cast<_CharT*>(__builtin_memmove(__s1, __s2,
 206:/usr/include/newlib/c++/10.3.1/bits/char_traits.h **** 						    __n * sizeof(char_type)));
 207:/usr/include/newlib/c++/10.3.1/bits/char_traits.h ****     }
 208:/usr/include/newlib/c++/10.3.1/bits/char_traits.h **** 
 209:/usr/include/newlib/c++/10.3.1/bits/char_traits.h ****   template<typename _CharT>
 210:/usr/include/newlib/c++/10.3.1/bits/char_traits.h ****     _GLIBCXX20_CONSTEXPR
 211:/usr/include/newlib/c++/10.3.1/bits/char_traits.h ****     typename char_traits<_CharT>::char_type*
 212:/usr/include/newlib/c++/10.3.1/bits/char_traits.h ****     char_traits<_CharT>::
 213:/usr/include/newlib/c++/10.3.1/bits/char_traits.h ****     copy(char_type* __s1, const char_type* __s2, std::size_t __n)
 214:/usr/include/newlib/c++/10.3.1/bits/char_traits.h ****     {
 215:/usr/include/newlib/c++/10.3.1/bits/char_traits.h ****       // NB: Inline std::copy so no recursive dependencies.
 216:/usr/include/newlib/c++/10.3.1/bits/char_traits.h ****       std::copy(__s2, __s2 + __n, __s1);
 217:/usr/include/newlib/c++/10.3.1/bits/char_traits.h ****       return __s1;
 218:/usr/include/newlib/c++/10.3.1/bits/char_traits.h ****     }
 219:/usr/include/newlib/c++/10.3.1/bits/char_traits.h **** 
 220:/usr/include/newlib/c++/10.3.1/bits/char_traits.h ****   template<typename _CharT>
 221:/usr/include/newlib/c++/10.3.1/bits/char_traits.h ****     _GLIBCXX20_CONSTEXPR
 222:/usr/include/newlib/c++/10.3.1/bits/char_traits.h ****     typename char_traits<_CharT>::char_type*
 223:/usr/include/newlib/c++/10.3.1/bits/char_traits.h ****     char_traits<_CharT>::
 224:/usr/include/newlib/c++/10.3.1/bits/char_traits.h ****     assign(char_type* __s, std::size_t __n, char_type __a)
 225:/usr/include/newlib/c++/10.3.1/bits/char_traits.h ****     {
 226:/usr/include/newlib/c++/10.3.1/bits/char_traits.h ****       // NB: Inline std::fill_n so no recursive dependencies.
 227:/usr/include/newlib/c++/10.3.1/bits/char_traits.h ****       std::fill_n(__s, __n, __a);
 228:/usr/include/newlib/c++/10.3.1/bits/char_traits.h ****       return __s;
 229:/usr/include/newlib/c++/10.3.1/bits/char_traits.h ****     }
 230:/usr/include/newlib/c++/10.3.1/bits/char_traits.h **** 
 231:/usr/include/newlib/c++/10.3.1/bits/char_traits.h **** _GLIBCXX_END_NAMESPACE_VERSION
 232:/usr/include/newlib/c++/10.3.1/bits/char_traits.h **** } // namespace
 233:/usr/include/newlib/c++/10.3.1/bits/char_traits.h **** 
 234:/usr/include/newlib/c++/10.3.1/bits/char_traits.h **** namespace std _GLIBCXX_VISIBILITY(default)
 235:/usr/include/newlib/c++/10.3.1/bits/char_traits.h **** {
 236:/usr/include/newlib/c++/10.3.1/bits/char_traits.h **** _GLIBCXX_BEGIN_NAMESPACE_VERSION
 237:/usr/include/newlib/c++/10.3.1/bits/char_traits.h **** 
 238:/usr/include/newlib/c++/10.3.1/bits/char_traits.h **** #if __cplusplus >= 201703L
 239:/usr/include/newlib/c++/10.3.1/bits/char_traits.h **** 
 240:/usr/include/newlib/c++/10.3.1/bits/char_traits.h **** #ifdef __cpp_lib_is_constant_evaluated
 241:/usr/include/newlib/c++/10.3.1/bits/char_traits.h **** // Unofficial macro indicating P1032R1 support in C++20
 242:/usr/include/newlib/c++/10.3.1/bits/char_traits.h **** # define __cpp_lib_constexpr_char_traits 201811L
 243:/usr/include/newlib/c++/10.3.1/bits/char_traits.h **** #else
 244:/usr/include/newlib/c++/10.3.1/bits/char_traits.h **** // Unofficial macro indicating P0426R1 support in C++17
 245:/usr/include/newlib/c++/10.3.1/bits/char_traits.h **** # define __cpp_lib_constexpr_char_traits 201611L
 246:/usr/include/newlib/c++/10.3.1/bits/char_traits.h **** #endif
 247:/usr/include/newlib/c++/10.3.1/bits/char_traits.h **** 
 248:/usr/include/newlib/c++/10.3.1/bits/char_traits.h ****   /**
 249:/usr/include/newlib/c++/10.3.1/bits/char_traits.h ****    *  @brief Determine whether the characters of a NULL-terminated
 250:/usr/include/newlib/c++/10.3.1/bits/char_traits.h ****    *  string are known at compile time.
ARM GAS  /tmp/ccRLs6kU.s 			page 26


 251:/usr/include/newlib/c++/10.3.1/bits/char_traits.h ****    *  @param  __s  The string.
 252:/usr/include/newlib/c++/10.3.1/bits/char_traits.h ****    *
 253:/usr/include/newlib/c++/10.3.1/bits/char_traits.h ****    *  Assumes that _CharT is a built-in character type.
 254:/usr/include/newlib/c++/10.3.1/bits/char_traits.h ****    */
 255:/usr/include/newlib/c++/10.3.1/bits/char_traits.h ****   template<typename _CharT>
 256:/usr/include/newlib/c++/10.3.1/bits/char_traits.h ****     _GLIBCXX_ALWAYS_INLINE constexpr bool
 257:/usr/include/newlib/c++/10.3.1/bits/char_traits.h ****     __constant_string_p(const _CharT* __s)
 258:/usr/include/newlib/c++/10.3.1/bits/char_traits.h ****     {
 259:/usr/include/newlib/c++/10.3.1/bits/char_traits.h **** #ifdef _GLIBCXX_HAVE_BUILTIN_IS_CONSTANT_EVALUATED
 260:/usr/include/newlib/c++/10.3.1/bits/char_traits.h ****       (void) __s;
 261:/usr/include/newlib/c++/10.3.1/bits/char_traits.h ****       // In constexpr contexts all strings should be constant.
 262:/usr/include/newlib/c++/10.3.1/bits/char_traits.h ****       return __builtin_is_constant_evaluated();
 263:/usr/include/newlib/c++/10.3.1/bits/char_traits.h **** #else
 264:/usr/include/newlib/c++/10.3.1/bits/char_traits.h ****       while (__builtin_constant_p(*__s) && *__s)
 265:/usr/include/newlib/c++/10.3.1/bits/char_traits.h **** 	__s++;
 266:/usr/include/newlib/c++/10.3.1/bits/char_traits.h ****       return __builtin_constant_p(*__s);
 267:/usr/include/newlib/c++/10.3.1/bits/char_traits.h **** #endif
 268:/usr/include/newlib/c++/10.3.1/bits/char_traits.h ****     }
 269:/usr/include/newlib/c++/10.3.1/bits/char_traits.h **** 
 270:/usr/include/newlib/c++/10.3.1/bits/char_traits.h ****   /**
 271:/usr/include/newlib/c++/10.3.1/bits/char_traits.h ****    *  @brief Determine whether the characters of a character array are
 272:/usr/include/newlib/c++/10.3.1/bits/char_traits.h ****    *  known at compile time.
 273:/usr/include/newlib/c++/10.3.1/bits/char_traits.h ****    *  @param  __a  The character array.
 274:/usr/include/newlib/c++/10.3.1/bits/char_traits.h ****    *  @param  __n  Number of characters.
 275:/usr/include/newlib/c++/10.3.1/bits/char_traits.h ****    *
 276:/usr/include/newlib/c++/10.3.1/bits/char_traits.h ****    *  Assumes that _CharT is a built-in character type.
 277:/usr/include/newlib/c++/10.3.1/bits/char_traits.h ****    */
 278:/usr/include/newlib/c++/10.3.1/bits/char_traits.h ****   template<typename _CharT>
 279:/usr/include/newlib/c++/10.3.1/bits/char_traits.h ****     _GLIBCXX_ALWAYS_INLINE constexpr bool
 280:/usr/include/newlib/c++/10.3.1/bits/char_traits.h ****     __constant_char_array_p(const _CharT* __a, size_t __n)
 281:/usr/include/newlib/c++/10.3.1/bits/char_traits.h ****     {
 282:/usr/include/newlib/c++/10.3.1/bits/char_traits.h **** #ifdef _GLIBCXX_HAVE_BUILTIN_IS_CONSTANT_EVALUATED
 283:/usr/include/newlib/c++/10.3.1/bits/char_traits.h ****       (void) __a;
 284:/usr/include/newlib/c++/10.3.1/bits/char_traits.h ****       (void) __n;
 285:/usr/include/newlib/c++/10.3.1/bits/char_traits.h ****       // In constexpr contexts all character arrays should be constant.
 286:/usr/include/newlib/c++/10.3.1/bits/char_traits.h ****       return __builtin_is_constant_evaluated();
 287:/usr/include/newlib/c++/10.3.1/bits/char_traits.h **** #else
 288:/usr/include/newlib/c++/10.3.1/bits/char_traits.h ****       size_t __i = 0;
 289:/usr/include/newlib/c++/10.3.1/bits/char_traits.h ****       while (__i < __n && __builtin_constant_p(__a[__i]))
 290:/usr/include/newlib/c++/10.3.1/bits/char_traits.h **** 	__i++;
 291:/usr/include/newlib/c++/10.3.1/bits/char_traits.h ****       return __i == __n;
 292:/usr/include/newlib/c++/10.3.1/bits/char_traits.h **** #endif
 293:/usr/include/newlib/c++/10.3.1/bits/char_traits.h ****     }
 294:/usr/include/newlib/c++/10.3.1/bits/char_traits.h **** #endif
 295:/usr/include/newlib/c++/10.3.1/bits/char_traits.h **** 
 296:/usr/include/newlib/c++/10.3.1/bits/char_traits.h ****   // 21.1
 297:/usr/include/newlib/c++/10.3.1/bits/char_traits.h ****   /**
 298:/usr/include/newlib/c++/10.3.1/bits/char_traits.h ****    *  @brief  Basis for explicit traits specializations.
 299:/usr/include/newlib/c++/10.3.1/bits/char_traits.h ****    *
 300:/usr/include/newlib/c++/10.3.1/bits/char_traits.h ****    *  @note  For any given actual character type, this definition is
 301:/usr/include/newlib/c++/10.3.1/bits/char_traits.h ****    *  probably wrong.  Since this is just a thin wrapper around
 302:/usr/include/newlib/c++/10.3.1/bits/char_traits.h ****    *  __gnu_cxx::char_traits, it is possible to achieve a more
 303:/usr/include/newlib/c++/10.3.1/bits/char_traits.h ****    *  appropriate definition by specializing __gnu_cxx::char_traits.
 304:/usr/include/newlib/c++/10.3.1/bits/char_traits.h ****    *
 305:/usr/include/newlib/c++/10.3.1/bits/char_traits.h ****    *  See https://gcc.gnu.org/onlinedocs/libstdc++/manual/strings.html#strings.string.character_typ
 306:/usr/include/newlib/c++/10.3.1/bits/char_traits.h ****    *  for advice on how to make use of this class for @a unusual character
 307:/usr/include/newlib/c++/10.3.1/bits/char_traits.h ****    *  types. Also, check out include/ext/pod_char_traits.h.
ARM GAS  /tmp/ccRLs6kU.s 			page 27


 308:/usr/include/newlib/c++/10.3.1/bits/char_traits.h ****   */
 309:/usr/include/newlib/c++/10.3.1/bits/char_traits.h ****   template<class _CharT>
 310:/usr/include/newlib/c++/10.3.1/bits/char_traits.h ****     struct char_traits : public __gnu_cxx::char_traits<_CharT>
 311:/usr/include/newlib/c++/10.3.1/bits/char_traits.h ****     { };
 312:/usr/include/newlib/c++/10.3.1/bits/char_traits.h **** 
 313:/usr/include/newlib/c++/10.3.1/bits/char_traits.h **** 
 314:/usr/include/newlib/c++/10.3.1/bits/char_traits.h ****   /// 21.1.3.1  char_traits specializations
 315:/usr/include/newlib/c++/10.3.1/bits/char_traits.h ****   template<>
 316:/usr/include/newlib/c++/10.3.1/bits/char_traits.h ****     struct char_traits<char>
 317:/usr/include/newlib/c++/10.3.1/bits/char_traits.h ****     {
 318:/usr/include/newlib/c++/10.3.1/bits/char_traits.h ****       typedef char              char_type;
 319:/usr/include/newlib/c++/10.3.1/bits/char_traits.h ****       typedef int               int_type;
 320:/usr/include/newlib/c++/10.3.1/bits/char_traits.h ****       typedef streampos         pos_type;
 321:/usr/include/newlib/c++/10.3.1/bits/char_traits.h ****       typedef streamoff         off_type;
 322:/usr/include/newlib/c++/10.3.1/bits/char_traits.h ****       typedef mbstate_t         state_type;
 323:/usr/include/newlib/c++/10.3.1/bits/char_traits.h **** #if __cpp_lib_three_way_comparison
 324:/usr/include/newlib/c++/10.3.1/bits/char_traits.h ****       using comparison_category = strong_ordering;
 325:/usr/include/newlib/c++/10.3.1/bits/char_traits.h **** #endif
 326:/usr/include/newlib/c++/10.3.1/bits/char_traits.h **** 
 327:/usr/include/newlib/c++/10.3.1/bits/char_traits.h ****       static _GLIBCXX17_CONSTEXPR void
 328:/usr/include/newlib/c++/10.3.1/bits/char_traits.h ****       assign(char_type& __c1, const char_type& __c2) _GLIBCXX_NOEXCEPT
 329:/usr/include/newlib/c++/10.3.1/bits/char_traits.h ****       { __c1 = __c2; }
 330:/usr/include/newlib/c++/10.3.1/bits/char_traits.h **** 
 331:/usr/include/newlib/c++/10.3.1/bits/char_traits.h ****       static _GLIBCXX_CONSTEXPR bool
 332:/usr/include/newlib/c++/10.3.1/bits/char_traits.h ****       eq(const char_type& __c1, const char_type& __c2) _GLIBCXX_NOEXCEPT
 333:/usr/include/newlib/c++/10.3.1/bits/char_traits.h ****       { return __c1 == __c2; }
 334:/usr/include/newlib/c++/10.3.1/bits/char_traits.h **** 
 335:/usr/include/newlib/c++/10.3.1/bits/char_traits.h ****       static _GLIBCXX_CONSTEXPR bool
 336:/usr/include/newlib/c++/10.3.1/bits/char_traits.h ****       lt(const char_type& __c1, const char_type& __c2) _GLIBCXX_NOEXCEPT
 337:/usr/include/newlib/c++/10.3.1/bits/char_traits.h ****       {
 338:/usr/include/newlib/c++/10.3.1/bits/char_traits.h **** 	// LWG 467.
 339:/usr/include/newlib/c++/10.3.1/bits/char_traits.h **** 	return (static_cast<unsigned char>(__c1)
 340:/usr/include/newlib/c++/10.3.1/bits/char_traits.h **** 		< static_cast<unsigned char>(__c2));
 341:/usr/include/newlib/c++/10.3.1/bits/char_traits.h ****       }
 342:/usr/include/newlib/c++/10.3.1/bits/char_traits.h **** 
 343:/usr/include/newlib/c++/10.3.1/bits/char_traits.h ****       static _GLIBCXX17_CONSTEXPR int
 344:/usr/include/newlib/c++/10.3.1/bits/char_traits.h ****       compare(const char_type* __s1, const char_type* __s2, size_t __n)
 345:/usr/include/newlib/c++/10.3.1/bits/char_traits.h ****       {
 346:/usr/include/newlib/c++/10.3.1/bits/char_traits.h **** 	if (__n == 0)
 347:/usr/include/newlib/c++/10.3.1/bits/char_traits.h **** 	  return 0;
 348:/usr/include/newlib/c++/10.3.1/bits/char_traits.h **** #if __cplusplus >= 201703L
 349:/usr/include/newlib/c++/10.3.1/bits/char_traits.h **** 	if (__builtin_constant_p(__n)
 350:/usr/include/newlib/c++/10.3.1/bits/char_traits.h **** 	    && __constant_char_array_p(__s1, __n)
 351:/usr/include/newlib/c++/10.3.1/bits/char_traits.h **** 	    && __constant_char_array_p(__s2, __n))
 352:/usr/include/newlib/c++/10.3.1/bits/char_traits.h **** 	  {
 353:/usr/include/newlib/c++/10.3.1/bits/char_traits.h **** 	    for (size_t __i = 0; __i < __n; ++__i)
 354:/usr/include/newlib/c++/10.3.1/bits/char_traits.h **** 	      if (lt(__s1[__i], __s2[__i]))
 355:/usr/include/newlib/c++/10.3.1/bits/char_traits.h **** 		return -1;
 356:/usr/include/newlib/c++/10.3.1/bits/char_traits.h **** 	      else if (lt(__s2[__i], __s1[__i]))
 357:/usr/include/newlib/c++/10.3.1/bits/char_traits.h **** 		return 1;
 358:/usr/include/newlib/c++/10.3.1/bits/char_traits.h **** 	    return 0;
 359:/usr/include/newlib/c++/10.3.1/bits/char_traits.h **** 	  }
 360:/usr/include/newlib/c++/10.3.1/bits/char_traits.h **** #endif
 361:/usr/include/newlib/c++/10.3.1/bits/char_traits.h **** 	return __builtin_memcmp(__s1, __s2, __n);
 362:/usr/include/newlib/c++/10.3.1/bits/char_traits.h ****       }
 363:/usr/include/newlib/c++/10.3.1/bits/char_traits.h **** 
 364:/usr/include/newlib/c++/10.3.1/bits/char_traits.h ****       static _GLIBCXX17_CONSTEXPR size_t
ARM GAS  /tmp/ccRLs6kU.s 			page 28


 365:/usr/include/newlib/c++/10.3.1/bits/char_traits.h ****       length(const char_type* __s)
 366:/usr/include/newlib/c++/10.3.1/bits/char_traits.h ****       {
 367:/usr/include/newlib/c++/10.3.1/bits/char_traits.h **** #if __cplusplus >= 201703L
 368:/usr/include/newlib/c++/10.3.1/bits/char_traits.h **** 	if (__constant_string_p(__s))
 369:/usr/include/newlib/c++/10.3.1/bits/char_traits.h **** 	  return __gnu_cxx::char_traits<char_type>::length(__s);
 370:/usr/include/newlib/c++/10.3.1/bits/char_traits.h **** #endif
 371:/usr/include/newlib/c++/10.3.1/bits/char_traits.h **** 	return __builtin_strlen(__s);
 372:/usr/include/newlib/c++/10.3.1/bits/char_traits.h ****       }
 373:/usr/include/newlib/c++/10.3.1/bits/char_traits.h **** 
 374:/usr/include/newlib/c++/10.3.1/bits/char_traits.h ****       static _GLIBCXX17_CONSTEXPR const char_type*
 375:/usr/include/newlib/c++/10.3.1/bits/char_traits.h ****       find(const char_type* __s, size_t __n, const char_type& __a)
 376:/usr/include/newlib/c++/10.3.1/bits/char_traits.h ****       {
 377:/usr/include/newlib/c++/10.3.1/bits/char_traits.h **** 	if (__n == 0)
 378:/usr/include/newlib/c++/10.3.1/bits/char_traits.h **** 	  return 0;
 379:/usr/include/newlib/c++/10.3.1/bits/char_traits.h **** #if __cplusplus >= 201703L
 380:/usr/include/newlib/c++/10.3.1/bits/char_traits.h **** 	if (__builtin_constant_p(__n)
 381:/usr/include/newlib/c++/10.3.1/bits/char_traits.h **** 	    && __builtin_constant_p(__a)
 382:/usr/include/newlib/c++/10.3.1/bits/char_traits.h **** 	    && __constant_char_array_p(__s, __n))
 383:/usr/include/newlib/c++/10.3.1/bits/char_traits.h **** 	  return __gnu_cxx::char_traits<char_type>::find(__s, __n, __a);
 384:/usr/include/newlib/c++/10.3.1/bits/char_traits.h **** #endif
 385:/usr/include/newlib/c++/10.3.1/bits/char_traits.h **** 	return static_cast<const char_type*>(__builtin_memchr(__s, __a, __n));
 386:/usr/include/newlib/c++/10.3.1/bits/char_traits.h ****       }
 387:/usr/include/newlib/c++/10.3.1/bits/char_traits.h **** 
 388:/usr/include/newlib/c++/10.3.1/bits/char_traits.h ****       static _GLIBCXX20_CONSTEXPR char_type*
 389:/usr/include/newlib/c++/10.3.1/bits/char_traits.h ****       move(char_type* __s1, const char_type* __s2, size_t __n)
 390:/usr/include/newlib/c++/10.3.1/bits/char_traits.h ****       {
 391:/usr/include/newlib/c++/10.3.1/bits/char_traits.h **** 	if (__n == 0)
 392:/usr/include/newlib/c++/10.3.1/bits/char_traits.h **** 	  return __s1;
 393:/usr/include/newlib/c++/10.3.1/bits/char_traits.h **** #ifdef __cpp_lib_is_constant_evaluated
 394:/usr/include/newlib/c++/10.3.1/bits/char_traits.h **** 	if (std::is_constant_evaluated())
 395:/usr/include/newlib/c++/10.3.1/bits/char_traits.h **** 	  return __gnu_cxx::char_traits<char_type>::move(__s1, __s2, __n);
 396:/usr/include/newlib/c++/10.3.1/bits/char_traits.h **** #endif
 397:/usr/include/newlib/c++/10.3.1/bits/char_traits.h **** 	return static_cast<char_type*>(__builtin_memmove(__s1, __s2, __n));
 398:/usr/include/newlib/c++/10.3.1/bits/char_traits.h ****       }
 399:/usr/include/newlib/c++/10.3.1/bits/char_traits.h **** 
 400:/usr/include/newlib/c++/10.3.1/bits/char_traits.h ****       static _GLIBCXX20_CONSTEXPR char_type*
 401:/usr/include/newlib/c++/10.3.1/bits/char_traits.h ****       copy(char_type* __s1, const char_type* __s2, size_t __n)
 333              		.loc 5 401 7 is_stmt 1 view .LVU60
 334              	.LBB376:
 402:/usr/include/newlib/c++/10.3.1/bits/char_traits.h ****       {
 403:/usr/include/newlib/c++/10.3.1/bits/char_traits.h **** 	if (__n == 0)
 335              		.loc 5 403 2 view .LVU61
 336 0018 A4B1     		cbz	r4, .L22
 404:/usr/include/newlib/c++/10.3.1/bits/char_traits.h **** 	  return __s1;
 405:/usr/include/newlib/c++/10.3.1/bits/char_traits.h **** #ifdef __cpp_lib_is_constant_evaluated
 406:/usr/include/newlib/c++/10.3.1/bits/char_traits.h **** 	if (std::is_constant_evaluated())
 407:/usr/include/newlib/c++/10.3.1/bits/char_traits.h **** 	  return __gnu_cxx::char_traits<char_type>::copy(__s1, __s2, __n);
 408:/usr/include/newlib/c++/10.3.1/bits/char_traits.h **** #endif
 409:/usr/include/newlib/c++/10.3.1/bits/char_traits.h **** 	return static_cast<char_type*>(__builtin_memcpy(__s1, __s2, __n));
 337              		.loc 5 409 2 view .LVU62
 338              		.loc 5 409 49 is_stmt 0 view .LVU63
 339 001a 2246     		mov	r2, r4
 340 001c 3146     		mov	r1, r6
 341 001e FFF7FEFF 		bl	memcpy
 342              	.LVL23:
 343              		.loc 5 409 66 view .LVU64
 344 0022 0FE0     		b	.L22
ARM GAS  /tmp/ccRLs6kU.s 			page 29


 345              	.LVL24:
 346              	.L24:
 347              		.loc 5 409 66 view .LVU65
 348              	.LBE376:
 349              	.LBE375:
 350              	.LBE374:
 351              	.LBE373:
 352              	.LBE372:
 211:/usr/include/newlib/c++/10.3.1/bits/basic_string.tcc **** 	  std::__throw_logic_error(__N("basic_string::"
 353              		.loc 2 211 42 discriminator 1 view .LVU66
 354 0024 9142     		cmp	r1, r2
 355 0026 F0D0     		beq	.L19
 212:/usr/include/newlib/c++/10.3.1/bits/basic_string.tcc **** 				       "_M_construct null not valid"));
 356              		.loc 2 212 28 view .LVU67
 357 0028 0A48     		ldr	r0, .L27
 358              	.LVL25:
 212:/usr/include/newlib/c++/10.3.1/bits/basic_string.tcc **** 				       "_M_construct null not valid"));
 359              		.loc 2 212 28 view .LVU68
 360 002a FFF7FEFF 		bl	_ZSt19__throw_logic_errorPKc
 361              	.LVL26:
 362              	.L25:
 218:/usr/include/newlib/c++/10.3.1/bits/basic_string.tcc **** 	  {
 219:/usr/include/newlib/c++/10.3.1/bits/basic_string.tcc **** 	    _M_data(_M_create(__dnew, size_type(0)));
 363              		.loc 2 219 13 view .LVU69
 364 002e 0022     		movs	r2, #0
 365              	.LVL27:
 366              		.loc 2 219 13 view .LVU70
 367 0030 01A9     		add	r1, sp, #4
 368              	.LVL28:
 369              		.loc 2 219 13 view .LVU71
 370 0032 2846     		mov	r0, r5
 371              	.LVL29:
 372              		.loc 2 219 13 view .LVU72
 373 0034 FFF7FEFF 		bl	_ZNSt7__cxx1112basic_stringIcSt11char_traitsIcESaIcEE9_M_createERjj
 374              	.LVL30:
 375              	.LBB381:
 376              	.LBI381:
 186:/usr/include/newlib/c++/10.3.1/bits/basic_string.h ****       { _M_dataplus._M_p = __p; }
 377              		.loc 4 186 7 is_stmt 1 view .LVU73
 378              	.LBB382:
 187:/usr/include/newlib/c++/10.3.1/bits/basic_string.h **** 
 379              		.loc 4 187 26 is_stmt 0 view .LVU74
 380 0038 2860     		str	r0, [r5]
 381              	.LVL31:
 187:/usr/include/newlib/c++/10.3.1/bits/basic_string.h **** 
 382              		.loc 4 187 26 view .LVU75
 383              	.LBE382:
 384              	.LBE381:
 220:/usr/include/newlib/c++/10.3.1/bits/basic_string.tcc **** 	    _M_capacity(__dnew);
 385              		.loc 2 220 17 view .LVU76
 386 003a 019B     		ldr	r3, [sp, #4]
 387              	.LVL32:
 388              	.LBB383:
 389              	.LBI383:
 218:/usr/include/newlib/c++/10.3.1/bits/basic_string.h ****       { _M_allocated_capacity = __capacity; }
 390              		.loc 4 218 7 is_stmt 1 view .LVU77
 391              	.LBB384:
ARM GAS  /tmp/ccRLs6kU.s 			page 30


 219:/usr/include/newlib/c++/10.3.1/bits/basic_string.h **** 
 392              		.loc 4 219 31 is_stmt 0 view .LVU78
 393 003c AB60     		str	r3, [r5, #8]
 219:/usr/include/newlib/c++/10.3.1/bits/basic_string.h **** 
 394              		.loc 4 219 45 view .LVU79
 395 003e E8E7     		b	.L20
 396              	.LVL33:
 397              	.L26:
 219:/usr/include/newlib/c++/10.3.1/bits/basic_string.h **** 
 398              		.loc 4 219 45 view .LVU80
 399              	.LBE384:
 400              	.LBE383:
 401              	.LBB385:
 402              	.LBB380:
 403              	.LBB379:
 404              	.LBB377:
 405              	.LBI377:
 328:/usr/include/newlib/c++/10.3.1/bits/char_traits.h ****       { __c1 = __c2; }
 406              		.loc 5 328 7 is_stmt 1 view .LVU81
 407              	.LBB378:
 329:/usr/include/newlib/c++/10.3.1/bits/char_traits.h **** 
 408              		.loc 5 329 9 view .LVU82
 329:/usr/include/newlib/c++/10.3.1/bits/char_traits.h **** 
 409              		.loc 5 329 16 is_stmt 0 view .LVU83
 410 0040 3378     		ldrb	r3, [r6]	@ zero_extendqisi2
 329:/usr/include/newlib/c++/10.3.1/bits/char_traits.h **** 
 411              		.loc 5 329 14 view .LVU84
 412 0042 0370     		strb	r3, [r0]
 413              	.LVL34:
 414              	.L22:
 329:/usr/include/newlib/c++/10.3.1/bits/char_traits.h **** 
 415              		.loc 5 329 14 view .LVU85
 416              	.LBE378:
 417              	.LBE377:
 418              	.LBE379:
 419              	.LBE380:
 420              	.LBE385:
 221:/usr/include/newlib/c++/10.3.1/bits/basic_string.tcc **** 	  }
 222:/usr/include/newlib/c++/10.3.1/bits/basic_string.tcc **** 
 223:/usr/include/newlib/c++/10.3.1/bits/basic_string.tcc **** 	// Check for out_of_range and length_error exceptions.
 224:/usr/include/newlib/c++/10.3.1/bits/basic_string.tcc **** 	__try
 225:/usr/include/newlib/c++/10.3.1/bits/basic_string.tcc **** 	  { this->_S_copy_chars(_M_data(), __beg, __end); }
 226:/usr/include/newlib/c++/10.3.1/bits/basic_string.tcc **** 	__catch(...)
 227:/usr/include/newlib/c++/10.3.1/bits/basic_string.tcc **** 	  {
 228:/usr/include/newlib/c++/10.3.1/bits/basic_string.tcc **** 	    _M_dispose();
 229:/usr/include/newlib/c++/10.3.1/bits/basic_string.tcc **** 	    __throw_exception_again;
 230:/usr/include/newlib/c++/10.3.1/bits/basic_string.tcc **** 	  }
 231:/usr/include/newlib/c++/10.3.1/bits/basic_string.tcc **** 
 232:/usr/include/newlib/c++/10.3.1/bits/basic_string.tcc **** 	_M_set_length(__dnew);
 421              		.loc 2 232 15 view .LVU86
 422 0044 019B     		ldr	r3, [sp, #4]
 423              	.LVL35:
 424              	.LBB386:
 425              	.LBI386:
 222:/usr/include/newlib/c++/10.3.1/bits/basic_string.h ****       {
 426              		.loc 4 222 7 is_stmt 1 view .LVU87
 427              	.LBB387:
ARM GAS  /tmp/ccRLs6kU.s 			page 31


 428              	.LBB388:
 429              	.LBI388:
 190:/usr/include/newlib/c++/10.3.1/bits/basic_string.h ****       { _M_string_length = __length; }
 430              		.loc 4 190 7 view .LVU88
 431              	.LBB389:
 191:/usr/include/newlib/c++/10.3.1/bits/basic_string.h **** 
 432              		.loc 4 191 26 is_stmt 0 view .LVU89
 433 0046 6B60     		str	r3, [r5, #4]
 434              	.LVL36:
 191:/usr/include/newlib/c++/10.3.1/bits/basic_string.h **** 
 435              		.loc 4 191 26 view .LVU90
 436              	.LBE389:
 437              	.LBE388:
 438              	.LBB390:
 439              	.LBI390:
 194:/usr/include/newlib/c++/10.3.1/bits/basic_string.h ****       { return _M_dataplus._M_p; }
 440              		.loc 4 194 7 is_stmt 1 view .LVU91
 441              	.LBB391:
 195:/usr/include/newlib/c++/10.3.1/bits/basic_string.h **** 
 442              		.loc 4 195 28 is_stmt 0 view .LVU92
 443 0048 2A68     		ldr	r2, [r5]
 444              	.LVL37:
 195:/usr/include/newlib/c++/10.3.1/bits/basic_string.h **** 
 445              		.loc 4 195 28 view .LVU93
 446              	.LBE391:
 447              	.LBE390:
 448              	.LBB392:
 449              	.LBI392:
 328:/usr/include/newlib/c++/10.3.1/bits/char_traits.h ****       { __c1 = __c2; }
 450              		.loc 5 328 7 is_stmt 1 view .LVU94
 451              	.LBB393:
 329:/usr/include/newlib/c++/10.3.1/bits/char_traits.h **** 
 452              		.loc 5 329 9 view .LVU95
 329:/usr/include/newlib/c++/10.3.1/bits/char_traits.h **** 
 453              		.loc 5 329 14 is_stmt 0 view .LVU96
 454 004a 0021     		movs	r1, #0
 455 004c D154     		strb	r1, [r2, r3]
 456              	.LVL38:
 329:/usr/include/newlib/c++/10.3.1/bits/char_traits.h **** 
 457              		.loc 5 329 14 view .LVU97
 458              	.LBE393:
 459              	.LBE392:
 460              	.LBE387:
 461              	.LBE386:
 233:/usr/include/newlib/c++/10.3.1/bits/basic_string.tcc ****       }
 462              		.loc 2 233 7 view .LVU98
 463 004e 02B0     		add	sp, sp, #8
 464              	.LCFI7:
 465              		.cfi_def_cfa_offset 16
 466              		@ sp needed
 467 0050 70BD     		pop	{r4, r5, r6, pc}
 468              	.LVL39:
 469              	.L28:
 470              		.loc 2 233 7 view .LVU99
 471 0052 00BF     		.align	2
 472              	.L27:
 473 0054 00000000 		.word	.LC1
ARM GAS  /tmp/ccRLs6kU.s 			page 32


 474              		.cfi_endproc
 475              	.LFE1848:
 476              		.fnend
 478              		.section	.text._ZNSt12_Vector_baseIcSaIcEED2Ev,"axG",%progbits,_ZNSt12_Vector_baseIcSaIcEED5Ev,com
 479              		.align	1
 480              		.weak	_ZNSt12_Vector_baseIcSaIcEED2Ev
 481              		.syntax unified
 482              		.thumb
 483              		.thumb_func
 484              		.fpu fpv4-sp-d16
 486              	_ZNSt12_Vector_baseIcSaIcEED2Ev:
 487              		.fnstart
 488              	.LVL40:
 489              	.LFB1899:
 490              		.file 6 "/usr/include/newlib/c++/10.3.1/bits/stl_vector.h"
   1:/usr/include/newlib/c++/10.3.1/bits/stl_vector.h **** // Vector implementation -*- C++ -*-
   2:/usr/include/newlib/c++/10.3.1/bits/stl_vector.h **** 
   3:/usr/include/newlib/c++/10.3.1/bits/stl_vector.h **** // Copyright (C) 2001-2020 Free Software Foundation, Inc.
   4:/usr/include/newlib/c++/10.3.1/bits/stl_vector.h **** //
   5:/usr/include/newlib/c++/10.3.1/bits/stl_vector.h **** // This file is part of the GNU ISO C++ Library.  This library is free
   6:/usr/include/newlib/c++/10.3.1/bits/stl_vector.h **** // software; you can redistribute it and/or modify it under the
   7:/usr/include/newlib/c++/10.3.1/bits/stl_vector.h **** // terms of the GNU General Public License as published by the
   8:/usr/include/newlib/c++/10.3.1/bits/stl_vector.h **** // Free Software Foundation; either version 3, or (at your option)
   9:/usr/include/newlib/c++/10.3.1/bits/stl_vector.h **** // any later version.
  10:/usr/include/newlib/c++/10.3.1/bits/stl_vector.h **** 
  11:/usr/include/newlib/c++/10.3.1/bits/stl_vector.h **** // This library is distributed in the hope that it will be useful,
  12:/usr/include/newlib/c++/10.3.1/bits/stl_vector.h **** // but WITHOUT ANY WARRANTY; without even the implied warranty of
  13:/usr/include/newlib/c++/10.3.1/bits/stl_vector.h **** // MERCHANTABILITY or FITNESS FOR A PARTICULAR PURPOSE.  See the
  14:/usr/include/newlib/c++/10.3.1/bits/stl_vector.h **** // GNU General Public License for more details.
  15:/usr/include/newlib/c++/10.3.1/bits/stl_vector.h **** 
  16:/usr/include/newlib/c++/10.3.1/bits/stl_vector.h **** // Under Section 7 of GPL version 3, you are granted additional
  17:/usr/include/newlib/c++/10.3.1/bits/stl_vector.h **** // permissions described in the GCC Runtime Library Exception, version
  18:/usr/include/newlib/c++/10.3.1/bits/stl_vector.h **** // 3.1, as published by the Free Software Foundation.
  19:/usr/include/newlib/c++/10.3.1/bits/stl_vector.h **** 
  20:/usr/include/newlib/c++/10.3.1/bits/stl_vector.h **** // You should have received a copy of the GNU General Public License and
  21:/usr/include/newlib/c++/10.3.1/bits/stl_vector.h **** // a copy of the GCC Runtime Library Exception along with this program;
  22:/usr/include/newlib/c++/10.3.1/bits/stl_vector.h **** // see the files COPYING3 and COPYING.RUNTIME respectively.  If not, see
  23:/usr/include/newlib/c++/10.3.1/bits/stl_vector.h **** // <http://www.gnu.org/licenses/>.
  24:/usr/include/newlib/c++/10.3.1/bits/stl_vector.h **** 
  25:/usr/include/newlib/c++/10.3.1/bits/stl_vector.h **** /*
  26:/usr/include/newlib/c++/10.3.1/bits/stl_vector.h ****  *
  27:/usr/include/newlib/c++/10.3.1/bits/stl_vector.h ****  * Copyright (c) 1994
  28:/usr/include/newlib/c++/10.3.1/bits/stl_vector.h ****  * Hewlett-Packard Company
  29:/usr/include/newlib/c++/10.3.1/bits/stl_vector.h ****  *
  30:/usr/include/newlib/c++/10.3.1/bits/stl_vector.h ****  * Permission to use, copy, modify, distribute and sell this software
  31:/usr/include/newlib/c++/10.3.1/bits/stl_vector.h ****  * and its documentation for any purpose is hereby granted without fee,
  32:/usr/include/newlib/c++/10.3.1/bits/stl_vector.h ****  * provided that the above copyright notice appear in all copies and
  33:/usr/include/newlib/c++/10.3.1/bits/stl_vector.h ****  * that both that copyright notice and this permission notice appear
  34:/usr/include/newlib/c++/10.3.1/bits/stl_vector.h ****  * in supporting documentation.  Hewlett-Packard Company makes no
  35:/usr/include/newlib/c++/10.3.1/bits/stl_vector.h ****  * representations about the suitability of this software for any
  36:/usr/include/newlib/c++/10.3.1/bits/stl_vector.h ****  * purpose.  It is provided "as is" without express or implied warranty.
  37:/usr/include/newlib/c++/10.3.1/bits/stl_vector.h ****  *
  38:/usr/include/newlib/c++/10.3.1/bits/stl_vector.h ****  *
  39:/usr/include/newlib/c++/10.3.1/bits/stl_vector.h ****  * Copyright (c) 1996
  40:/usr/include/newlib/c++/10.3.1/bits/stl_vector.h ****  * Silicon Graphics Computer Systems, Inc.
  41:/usr/include/newlib/c++/10.3.1/bits/stl_vector.h ****  *
  42:/usr/include/newlib/c++/10.3.1/bits/stl_vector.h ****  * Permission to use, copy, modify, distribute and sell this software
ARM GAS  /tmp/ccRLs6kU.s 			page 33


  43:/usr/include/newlib/c++/10.3.1/bits/stl_vector.h ****  * and its documentation for any purpose is hereby granted without fee,
  44:/usr/include/newlib/c++/10.3.1/bits/stl_vector.h ****  * provided that the above copyright notice appear in all copies and
  45:/usr/include/newlib/c++/10.3.1/bits/stl_vector.h ****  * that both that copyright notice and this permission notice appear
  46:/usr/include/newlib/c++/10.3.1/bits/stl_vector.h ****  * in supporting documentation.  Silicon Graphics makes no
  47:/usr/include/newlib/c++/10.3.1/bits/stl_vector.h ****  * representations about the suitability of this  software for any
  48:/usr/include/newlib/c++/10.3.1/bits/stl_vector.h ****  * purpose.  It is provided "as is" without express or implied warranty.
  49:/usr/include/newlib/c++/10.3.1/bits/stl_vector.h ****  */
  50:/usr/include/newlib/c++/10.3.1/bits/stl_vector.h **** 
  51:/usr/include/newlib/c++/10.3.1/bits/stl_vector.h **** /** @file bits/stl_vector.h
  52:/usr/include/newlib/c++/10.3.1/bits/stl_vector.h ****  *  This is an internal header file, included by other library headers.
  53:/usr/include/newlib/c++/10.3.1/bits/stl_vector.h ****  *  Do not attempt to use it directly. @headername{vector}
  54:/usr/include/newlib/c++/10.3.1/bits/stl_vector.h ****  */
  55:/usr/include/newlib/c++/10.3.1/bits/stl_vector.h **** 
  56:/usr/include/newlib/c++/10.3.1/bits/stl_vector.h **** #ifndef _STL_VECTOR_H
  57:/usr/include/newlib/c++/10.3.1/bits/stl_vector.h **** #define _STL_VECTOR_H 1
  58:/usr/include/newlib/c++/10.3.1/bits/stl_vector.h **** 
  59:/usr/include/newlib/c++/10.3.1/bits/stl_vector.h **** #include <bits/stl_iterator_base_funcs.h>
  60:/usr/include/newlib/c++/10.3.1/bits/stl_vector.h **** #include <bits/functexcept.h>
  61:/usr/include/newlib/c++/10.3.1/bits/stl_vector.h **** #include <bits/concept_check.h>
  62:/usr/include/newlib/c++/10.3.1/bits/stl_vector.h **** #if __cplusplus >= 201103L
  63:/usr/include/newlib/c++/10.3.1/bits/stl_vector.h **** #include <initializer_list>
  64:/usr/include/newlib/c++/10.3.1/bits/stl_vector.h **** #endif
  65:/usr/include/newlib/c++/10.3.1/bits/stl_vector.h **** #if __cplusplus > 201703L
  66:/usr/include/newlib/c++/10.3.1/bits/stl_vector.h **** # include <compare>
  67:/usr/include/newlib/c++/10.3.1/bits/stl_vector.h **** #endif
  68:/usr/include/newlib/c++/10.3.1/bits/stl_vector.h **** 
  69:/usr/include/newlib/c++/10.3.1/bits/stl_vector.h **** #include <debug/assertions.h>
  70:/usr/include/newlib/c++/10.3.1/bits/stl_vector.h **** 
  71:/usr/include/newlib/c++/10.3.1/bits/stl_vector.h **** #if _GLIBCXX_SANITIZE_STD_ALLOCATOR && _GLIBCXX_SANITIZE_VECTOR
  72:/usr/include/newlib/c++/10.3.1/bits/stl_vector.h **** extern "C" void
  73:/usr/include/newlib/c++/10.3.1/bits/stl_vector.h **** __sanitizer_annotate_contiguous_container(const void*, const void*,
  74:/usr/include/newlib/c++/10.3.1/bits/stl_vector.h **** 					  const void*, const void*);
  75:/usr/include/newlib/c++/10.3.1/bits/stl_vector.h **** #endif
  76:/usr/include/newlib/c++/10.3.1/bits/stl_vector.h **** 
  77:/usr/include/newlib/c++/10.3.1/bits/stl_vector.h **** namespace std _GLIBCXX_VISIBILITY(default)
  78:/usr/include/newlib/c++/10.3.1/bits/stl_vector.h **** {
  79:/usr/include/newlib/c++/10.3.1/bits/stl_vector.h **** _GLIBCXX_BEGIN_NAMESPACE_VERSION
  80:/usr/include/newlib/c++/10.3.1/bits/stl_vector.h **** _GLIBCXX_BEGIN_NAMESPACE_CONTAINER
  81:/usr/include/newlib/c++/10.3.1/bits/stl_vector.h **** 
  82:/usr/include/newlib/c++/10.3.1/bits/stl_vector.h ****   /// See bits/stl_deque.h's _Deque_base for an explanation.
  83:/usr/include/newlib/c++/10.3.1/bits/stl_vector.h ****   template<typename _Tp, typename _Alloc>
  84:/usr/include/newlib/c++/10.3.1/bits/stl_vector.h ****     struct _Vector_base
  85:/usr/include/newlib/c++/10.3.1/bits/stl_vector.h ****     {
  86:/usr/include/newlib/c++/10.3.1/bits/stl_vector.h ****       typedef typename __gnu_cxx::__alloc_traits<_Alloc>::template
  87:/usr/include/newlib/c++/10.3.1/bits/stl_vector.h **** 	rebind<_Tp>::other _Tp_alloc_type;
  88:/usr/include/newlib/c++/10.3.1/bits/stl_vector.h ****       typedef typename __gnu_cxx::__alloc_traits<_Tp_alloc_type>::pointer
  89:/usr/include/newlib/c++/10.3.1/bits/stl_vector.h ****        	pointer;
  90:/usr/include/newlib/c++/10.3.1/bits/stl_vector.h **** 
  91:/usr/include/newlib/c++/10.3.1/bits/stl_vector.h ****       struct _Vector_impl_data
  92:/usr/include/newlib/c++/10.3.1/bits/stl_vector.h ****       {
  93:/usr/include/newlib/c++/10.3.1/bits/stl_vector.h **** 	pointer _M_start;
  94:/usr/include/newlib/c++/10.3.1/bits/stl_vector.h **** 	pointer _M_finish;
  95:/usr/include/newlib/c++/10.3.1/bits/stl_vector.h **** 	pointer _M_end_of_storage;
  96:/usr/include/newlib/c++/10.3.1/bits/stl_vector.h **** 
  97:/usr/include/newlib/c++/10.3.1/bits/stl_vector.h **** 	_Vector_impl_data() _GLIBCXX_NOEXCEPT
  98:/usr/include/newlib/c++/10.3.1/bits/stl_vector.h **** 	: _M_start(), _M_finish(), _M_end_of_storage()
  99:/usr/include/newlib/c++/10.3.1/bits/stl_vector.h **** 	{ }
ARM GAS  /tmp/ccRLs6kU.s 			page 34


 100:/usr/include/newlib/c++/10.3.1/bits/stl_vector.h **** 
 101:/usr/include/newlib/c++/10.3.1/bits/stl_vector.h **** #if __cplusplus >= 201103L
 102:/usr/include/newlib/c++/10.3.1/bits/stl_vector.h **** 	_Vector_impl_data(_Vector_impl_data&& __x) noexcept
 103:/usr/include/newlib/c++/10.3.1/bits/stl_vector.h **** 	: _M_start(__x._M_start), _M_finish(__x._M_finish),
 104:/usr/include/newlib/c++/10.3.1/bits/stl_vector.h **** 	  _M_end_of_storage(__x._M_end_of_storage)
 105:/usr/include/newlib/c++/10.3.1/bits/stl_vector.h **** 	{ __x._M_start = __x._M_finish = __x._M_end_of_storage = pointer(); }
 106:/usr/include/newlib/c++/10.3.1/bits/stl_vector.h **** #endif
 107:/usr/include/newlib/c++/10.3.1/bits/stl_vector.h **** 
 108:/usr/include/newlib/c++/10.3.1/bits/stl_vector.h **** 	void
 109:/usr/include/newlib/c++/10.3.1/bits/stl_vector.h **** 	_M_copy_data(_Vector_impl_data const& __x) _GLIBCXX_NOEXCEPT
 110:/usr/include/newlib/c++/10.3.1/bits/stl_vector.h **** 	{
 111:/usr/include/newlib/c++/10.3.1/bits/stl_vector.h **** 	  _M_start = __x._M_start;
 112:/usr/include/newlib/c++/10.3.1/bits/stl_vector.h **** 	  _M_finish = __x._M_finish;
 113:/usr/include/newlib/c++/10.3.1/bits/stl_vector.h **** 	  _M_end_of_storage = __x._M_end_of_storage;
 114:/usr/include/newlib/c++/10.3.1/bits/stl_vector.h **** 	}
 115:/usr/include/newlib/c++/10.3.1/bits/stl_vector.h **** 
 116:/usr/include/newlib/c++/10.3.1/bits/stl_vector.h **** 	void
 117:/usr/include/newlib/c++/10.3.1/bits/stl_vector.h **** 	_M_swap_data(_Vector_impl_data& __x) _GLIBCXX_NOEXCEPT
 118:/usr/include/newlib/c++/10.3.1/bits/stl_vector.h **** 	{
 119:/usr/include/newlib/c++/10.3.1/bits/stl_vector.h **** 	  // Do not use std::swap(_M_start, __x._M_start), etc as it loses
 120:/usr/include/newlib/c++/10.3.1/bits/stl_vector.h **** 	  // information used by TBAA.
 121:/usr/include/newlib/c++/10.3.1/bits/stl_vector.h **** 	  _Vector_impl_data __tmp;
 122:/usr/include/newlib/c++/10.3.1/bits/stl_vector.h **** 	  __tmp._M_copy_data(*this);
 123:/usr/include/newlib/c++/10.3.1/bits/stl_vector.h **** 	  _M_copy_data(__x);
 124:/usr/include/newlib/c++/10.3.1/bits/stl_vector.h **** 	  __x._M_copy_data(__tmp);
 125:/usr/include/newlib/c++/10.3.1/bits/stl_vector.h **** 	}
 126:/usr/include/newlib/c++/10.3.1/bits/stl_vector.h ****       };
 127:/usr/include/newlib/c++/10.3.1/bits/stl_vector.h **** 
 128:/usr/include/newlib/c++/10.3.1/bits/stl_vector.h ****       struct _Vector_impl
 129:/usr/include/newlib/c++/10.3.1/bits/stl_vector.h **** 	: public _Tp_alloc_type, public _Vector_impl_data
 130:/usr/include/newlib/c++/10.3.1/bits/stl_vector.h ****       {
 131:/usr/include/newlib/c++/10.3.1/bits/stl_vector.h **** 	_Vector_impl() _GLIBCXX_NOEXCEPT_IF(
 132:/usr/include/newlib/c++/10.3.1/bits/stl_vector.h **** 	    is_nothrow_default_constructible<_Tp_alloc_type>::value)
 133:/usr/include/newlib/c++/10.3.1/bits/stl_vector.h **** 	: _Tp_alloc_type()
 134:/usr/include/newlib/c++/10.3.1/bits/stl_vector.h **** 	{ }
 135:/usr/include/newlib/c++/10.3.1/bits/stl_vector.h **** 
 136:/usr/include/newlib/c++/10.3.1/bits/stl_vector.h **** 	_Vector_impl(_Tp_alloc_type const& __a) _GLIBCXX_NOEXCEPT
 137:/usr/include/newlib/c++/10.3.1/bits/stl_vector.h **** 	: _Tp_alloc_type(__a)
 138:/usr/include/newlib/c++/10.3.1/bits/stl_vector.h **** 	{ }
 139:/usr/include/newlib/c++/10.3.1/bits/stl_vector.h **** 
 140:/usr/include/newlib/c++/10.3.1/bits/stl_vector.h **** #if __cplusplus >= 201103L
 141:/usr/include/newlib/c++/10.3.1/bits/stl_vector.h **** 	// Not defaulted, to enforce noexcept(true) even when
 142:/usr/include/newlib/c++/10.3.1/bits/stl_vector.h **** 	// !is_nothrow_move_constructible<_Tp_alloc_type>.
 143:/usr/include/newlib/c++/10.3.1/bits/stl_vector.h **** 	_Vector_impl(_Vector_impl&& __x) noexcept
 144:/usr/include/newlib/c++/10.3.1/bits/stl_vector.h **** 	: _Tp_alloc_type(std::move(__x)), _Vector_impl_data(std::move(__x))
 145:/usr/include/newlib/c++/10.3.1/bits/stl_vector.h **** 	{ }
 146:/usr/include/newlib/c++/10.3.1/bits/stl_vector.h **** 
 147:/usr/include/newlib/c++/10.3.1/bits/stl_vector.h **** 	_Vector_impl(_Tp_alloc_type&& __a) noexcept
 148:/usr/include/newlib/c++/10.3.1/bits/stl_vector.h **** 	: _Tp_alloc_type(std::move(__a))
 149:/usr/include/newlib/c++/10.3.1/bits/stl_vector.h **** 	{ }
 150:/usr/include/newlib/c++/10.3.1/bits/stl_vector.h **** 
 151:/usr/include/newlib/c++/10.3.1/bits/stl_vector.h **** 	_Vector_impl(_Tp_alloc_type&& __a, _Vector_impl&& __rv) noexcept
 152:/usr/include/newlib/c++/10.3.1/bits/stl_vector.h **** 	: _Tp_alloc_type(std::move(__a)), _Vector_impl_data(std::move(__rv))
 153:/usr/include/newlib/c++/10.3.1/bits/stl_vector.h **** 	{ }
 154:/usr/include/newlib/c++/10.3.1/bits/stl_vector.h **** #endif
 155:/usr/include/newlib/c++/10.3.1/bits/stl_vector.h **** 
 156:/usr/include/newlib/c++/10.3.1/bits/stl_vector.h **** #if _GLIBCXX_SANITIZE_STD_ALLOCATOR && _GLIBCXX_SANITIZE_VECTOR
ARM GAS  /tmp/ccRLs6kU.s 			page 35


 157:/usr/include/newlib/c++/10.3.1/bits/stl_vector.h **** 	template<typename = _Tp_alloc_type>
 158:/usr/include/newlib/c++/10.3.1/bits/stl_vector.h **** 	  struct _Asan
 159:/usr/include/newlib/c++/10.3.1/bits/stl_vector.h **** 	  {
 160:/usr/include/newlib/c++/10.3.1/bits/stl_vector.h **** 	    typedef typename __gnu_cxx::__alloc_traits<_Tp_alloc_type>
 161:/usr/include/newlib/c++/10.3.1/bits/stl_vector.h **** 	      ::size_type size_type;
 162:/usr/include/newlib/c++/10.3.1/bits/stl_vector.h **** 
 163:/usr/include/newlib/c++/10.3.1/bits/stl_vector.h **** 	    static void _S_shrink(_Vector_impl&, size_type) { }
 164:/usr/include/newlib/c++/10.3.1/bits/stl_vector.h **** 	    static void _S_on_dealloc(_Vector_impl&) { }
 165:/usr/include/newlib/c++/10.3.1/bits/stl_vector.h **** 
 166:/usr/include/newlib/c++/10.3.1/bits/stl_vector.h **** 	    typedef _Vector_impl& _Reinit;
 167:/usr/include/newlib/c++/10.3.1/bits/stl_vector.h **** 
 168:/usr/include/newlib/c++/10.3.1/bits/stl_vector.h **** 	    struct _Grow
 169:/usr/include/newlib/c++/10.3.1/bits/stl_vector.h **** 	    {
 170:/usr/include/newlib/c++/10.3.1/bits/stl_vector.h **** 	      _Grow(_Vector_impl&, size_type) { }
 171:/usr/include/newlib/c++/10.3.1/bits/stl_vector.h **** 	      void _M_grew(size_type) { }
 172:/usr/include/newlib/c++/10.3.1/bits/stl_vector.h **** 	    };
 173:/usr/include/newlib/c++/10.3.1/bits/stl_vector.h **** 	  };
 174:/usr/include/newlib/c++/10.3.1/bits/stl_vector.h **** 
 175:/usr/include/newlib/c++/10.3.1/bits/stl_vector.h **** 	// Enable ASan annotations for memory obtained from std::allocator.
 176:/usr/include/newlib/c++/10.3.1/bits/stl_vector.h **** 	template<typename _Up>
 177:/usr/include/newlib/c++/10.3.1/bits/stl_vector.h **** 	  struct _Asan<allocator<_Up> >
 178:/usr/include/newlib/c++/10.3.1/bits/stl_vector.h **** 	  {
 179:/usr/include/newlib/c++/10.3.1/bits/stl_vector.h **** 	    typedef typename __gnu_cxx::__alloc_traits<_Tp_alloc_type>
 180:/usr/include/newlib/c++/10.3.1/bits/stl_vector.h **** 	      ::size_type size_type;
 181:/usr/include/newlib/c++/10.3.1/bits/stl_vector.h **** 
 182:/usr/include/newlib/c++/10.3.1/bits/stl_vector.h **** 	    // Adjust ASan annotation for [_M_start, _M_end_of_storage) to
 183:/usr/include/newlib/c++/10.3.1/bits/stl_vector.h **** 	    // mark end of valid region as __curr instead of __prev.
 184:/usr/include/newlib/c++/10.3.1/bits/stl_vector.h **** 	    static void
 185:/usr/include/newlib/c++/10.3.1/bits/stl_vector.h **** 	    _S_adjust(_Vector_impl& __impl, pointer __prev, pointer __curr)
 186:/usr/include/newlib/c++/10.3.1/bits/stl_vector.h **** 	    {
 187:/usr/include/newlib/c++/10.3.1/bits/stl_vector.h **** 	      __sanitizer_annotate_contiguous_container(__impl._M_start,
 188:/usr/include/newlib/c++/10.3.1/bits/stl_vector.h **** 		  __impl._M_end_of_storage, __prev, __curr);
 189:/usr/include/newlib/c++/10.3.1/bits/stl_vector.h **** 	    }
 190:/usr/include/newlib/c++/10.3.1/bits/stl_vector.h **** 
 191:/usr/include/newlib/c++/10.3.1/bits/stl_vector.h **** 	    static void
 192:/usr/include/newlib/c++/10.3.1/bits/stl_vector.h **** 	    _S_grow(_Vector_impl& __impl, size_type __n)
 193:/usr/include/newlib/c++/10.3.1/bits/stl_vector.h **** 	    { _S_adjust(__impl, __impl._M_finish, __impl._M_finish + __n); }
 194:/usr/include/newlib/c++/10.3.1/bits/stl_vector.h **** 
 195:/usr/include/newlib/c++/10.3.1/bits/stl_vector.h **** 	    static void
 196:/usr/include/newlib/c++/10.3.1/bits/stl_vector.h **** 	    _S_shrink(_Vector_impl& __impl, size_type __n)
 197:/usr/include/newlib/c++/10.3.1/bits/stl_vector.h **** 	    { _S_adjust(__impl, __impl._M_finish + __n, __impl._M_finish); }
 198:/usr/include/newlib/c++/10.3.1/bits/stl_vector.h **** 
 199:/usr/include/newlib/c++/10.3.1/bits/stl_vector.h **** 	    static void
 200:/usr/include/newlib/c++/10.3.1/bits/stl_vector.h **** 	    _S_on_dealloc(_Vector_impl& __impl)
 201:/usr/include/newlib/c++/10.3.1/bits/stl_vector.h **** 	    {
 202:/usr/include/newlib/c++/10.3.1/bits/stl_vector.h **** 	      if (__impl._M_start)
 203:/usr/include/newlib/c++/10.3.1/bits/stl_vector.h **** 		_S_adjust(__impl, __impl._M_finish, __impl._M_end_of_storage);
 204:/usr/include/newlib/c++/10.3.1/bits/stl_vector.h **** 	    }
 205:/usr/include/newlib/c++/10.3.1/bits/stl_vector.h **** 
 206:/usr/include/newlib/c++/10.3.1/bits/stl_vector.h **** 	    // Used on reallocation to tell ASan unused capacity is invalid.
 207:/usr/include/newlib/c++/10.3.1/bits/stl_vector.h **** 	    struct _Reinit
 208:/usr/include/newlib/c++/10.3.1/bits/stl_vector.h **** 	    {
 209:/usr/include/newlib/c++/10.3.1/bits/stl_vector.h **** 	      explicit _Reinit(_Vector_impl& __impl) : _M_impl(__impl)
 210:/usr/include/newlib/c++/10.3.1/bits/stl_vector.h **** 	      {
 211:/usr/include/newlib/c++/10.3.1/bits/stl_vector.h **** 		// Mark unused capacity as valid again before deallocating it.
 212:/usr/include/newlib/c++/10.3.1/bits/stl_vector.h **** 		_S_on_dealloc(_M_impl);
 213:/usr/include/newlib/c++/10.3.1/bits/stl_vector.h **** 	      }
ARM GAS  /tmp/ccRLs6kU.s 			page 36


 214:/usr/include/newlib/c++/10.3.1/bits/stl_vector.h **** 
 215:/usr/include/newlib/c++/10.3.1/bits/stl_vector.h **** 	      ~_Reinit()
 216:/usr/include/newlib/c++/10.3.1/bits/stl_vector.h **** 	      {
 217:/usr/include/newlib/c++/10.3.1/bits/stl_vector.h **** 		// Mark unused capacity as invalid after reallocation.
 218:/usr/include/newlib/c++/10.3.1/bits/stl_vector.h **** 		if (_M_impl._M_start)
 219:/usr/include/newlib/c++/10.3.1/bits/stl_vector.h **** 		  _S_adjust(_M_impl, _M_impl._M_end_of_storage,
 220:/usr/include/newlib/c++/10.3.1/bits/stl_vector.h **** 			    _M_impl._M_finish);
 221:/usr/include/newlib/c++/10.3.1/bits/stl_vector.h **** 	      }
 222:/usr/include/newlib/c++/10.3.1/bits/stl_vector.h **** 
 223:/usr/include/newlib/c++/10.3.1/bits/stl_vector.h **** 	      _Vector_impl& _M_impl;
 224:/usr/include/newlib/c++/10.3.1/bits/stl_vector.h **** 
 225:/usr/include/newlib/c++/10.3.1/bits/stl_vector.h **** #if __cplusplus >= 201103L
 226:/usr/include/newlib/c++/10.3.1/bits/stl_vector.h **** 	      _Reinit(const _Reinit&) = delete;
 227:/usr/include/newlib/c++/10.3.1/bits/stl_vector.h **** 	      _Reinit& operator=(const _Reinit&) = delete;
 228:/usr/include/newlib/c++/10.3.1/bits/stl_vector.h **** #endif
 229:/usr/include/newlib/c++/10.3.1/bits/stl_vector.h **** 	    };
 230:/usr/include/newlib/c++/10.3.1/bits/stl_vector.h **** 
 231:/usr/include/newlib/c++/10.3.1/bits/stl_vector.h **** 	    // Tell ASan when unused capacity is initialized to be valid.
 232:/usr/include/newlib/c++/10.3.1/bits/stl_vector.h **** 	    struct _Grow
 233:/usr/include/newlib/c++/10.3.1/bits/stl_vector.h **** 	    {
 234:/usr/include/newlib/c++/10.3.1/bits/stl_vector.h **** 	      _Grow(_Vector_impl& __impl, size_type __n)
 235:/usr/include/newlib/c++/10.3.1/bits/stl_vector.h **** 	      : _M_impl(__impl), _M_n(__n)
 236:/usr/include/newlib/c++/10.3.1/bits/stl_vector.h **** 	      { _S_grow(_M_impl, __n); }
 237:/usr/include/newlib/c++/10.3.1/bits/stl_vector.h **** 
 238:/usr/include/newlib/c++/10.3.1/bits/stl_vector.h **** 	      ~_Grow() { if (_M_n) _S_shrink(_M_impl, _M_n); }
 239:/usr/include/newlib/c++/10.3.1/bits/stl_vector.h **** 
 240:/usr/include/newlib/c++/10.3.1/bits/stl_vector.h **** 	      void _M_grew(size_type __n) { _M_n -= __n; }
 241:/usr/include/newlib/c++/10.3.1/bits/stl_vector.h **** 
 242:/usr/include/newlib/c++/10.3.1/bits/stl_vector.h **** #if __cplusplus >= 201103L
 243:/usr/include/newlib/c++/10.3.1/bits/stl_vector.h **** 	      _Grow(const _Grow&) = delete;
 244:/usr/include/newlib/c++/10.3.1/bits/stl_vector.h **** 	      _Grow& operator=(const _Grow&) = delete;
 245:/usr/include/newlib/c++/10.3.1/bits/stl_vector.h **** #endif
 246:/usr/include/newlib/c++/10.3.1/bits/stl_vector.h **** 	    private:
 247:/usr/include/newlib/c++/10.3.1/bits/stl_vector.h **** 	      _Vector_impl& _M_impl;
 248:/usr/include/newlib/c++/10.3.1/bits/stl_vector.h **** 	      size_type _M_n;
 249:/usr/include/newlib/c++/10.3.1/bits/stl_vector.h **** 	    };
 250:/usr/include/newlib/c++/10.3.1/bits/stl_vector.h **** 	  };
 251:/usr/include/newlib/c++/10.3.1/bits/stl_vector.h **** 
 252:/usr/include/newlib/c++/10.3.1/bits/stl_vector.h **** #define _GLIBCXX_ASAN_ANNOTATE_REINIT \
 253:/usr/include/newlib/c++/10.3.1/bits/stl_vector.h ****   typename _Base::_Vector_impl::template _Asan<>::_Reinit const \
 254:/usr/include/newlib/c++/10.3.1/bits/stl_vector.h **** 	__attribute__((__unused__)) __reinit_guard(this->_M_impl)
 255:/usr/include/newlib/c++/10.3.1/bits/stl_vector.h **** #define _GLIBCXX_ASAN_ANNOTATE_GROW(n) \
 256:/usr/include/newlib/c++/10.3.1/bits/stl_vector.h ****   typename _Base::_Vector_impl::template _Asan<>::_Grow \
 257:/usr/include/newlib/c++/10.3.1/bits/stl_vector.h **** 	__attribute__((__unused__)) __grow_guard(this->_M_impl, (n))
 258:/usr/include/newlib/c++/10.3.1/bits/stl_vector.h **** #define _GLIBCXX_ASAN_ANNOTATE_GREW(n) __grow_guard._M_grew(n)
 259:/usr/include/newlib/c++/10.3.1/bits/stl_vector.h **** #define _GLIBCXX_ASAN_ANNOTATE_SHRINK(n) \
 260:/usr/include/newlib/c++/10.3.1/bits/stl_vector.h ****   _Base::_Vector_impl::template _Asan<>::_S_shrink(this->_M_impl, n)
 261:/usr/include/newlib/c++/10.3.1/bits/stl_vector.h **** #define _GLIBCXX_ASAN_ANNOTATE_BEFORE_DEALLOC \
 262:/usr/include/newlib/c++/10.3.1/bits/stl_vector.h ****   _Base::_Vector_impl::template _Asan<>::_S_on_dealloc(this->_M_impl)
 263:/usr/include/newlib/c++/10.3.1/bits/stl_vector.h **** #else // ! (_GLIBCXX_SANITIZE_STD_ALLOCATOR && _GLIBCXX_SANITIZE_VECTOR)
 264:/usr/include/newlib/c++/10.3.1/bits/stl_vector.h **** #define _GLIBCXX_ASAN_ANNOTATE_REINIT
 265:/usr/include/newlib/c++/10.3.1/bits/stl_vector.h **** #define _GLIBCXX_ASAN_ANNOTATE_GROW(n)
 266:/usr/include/newlib/c++/10.3.1/bits/stl_vector.h **** #define _GLIBCXX_ASAN_ANNOTATE_GREW(n)
 267:/usr/include/newlib/c++/10.3.1/bits/stl_vector.h **** #define _GLIBCXX_ASAN_ANNOTATE_SHRINK(n)
 268:/usr/include/newlib/c++/10.3.1/bits/stl_vector.h **** #define _GLIBCXX_ASAN_ANNOTATE_BEFORE_DEALLOC
 269:/usr/include/newlib/c++/10.3.1/bits/stl_vector.h **** #endif // _GLIBCXX_SANITIZE_STD_ALLOCATOR && _GLIBCXX_SANITIZE_VECTOR
 270:/usr/include/newlib/c++/10.3.1/bits/stl_vector.h ****       };
ARM GAS  /tmp/ccRLs6kU.s 			page 37


 271:/usr/include/newlib/c++/10.3.1/bits/stl_vector.h **** 
 272:/usr/include/newlib/c++/10.3.1/bits/stl_vector.h ****     public:
 273:/usr/include/newlib/c++/10.3.1/bits/stl_vector.h ****       typedef _Alloc allocator_type;
 274:/usr/include/newlib/c++/10.3.1/bits/stl_vector.h **** 
 275:/usr/include/newlib/c++/10.3.1/bits/stl_vector.h ****       _Tp_alloc_type&
 276:/usr/include/newlib/c++/10.3.1/bits/stl_vector.h ****       _M_get_Tp_allocator() _GLIBCXX_NOEXCEPT
 277:/usr/include/newlib/c++/10.3.1/bits/stl_vector.h ****       { return this->_M_impl; }
 278:/usr/include/newlib/c++/10.3.1/bits/stl_vector.h **** 
 279:/usr/include/newlib/c++/10.3.1/bits/stl_vector.h ****       const _Tp_alloc_type&
 280:/usr/include/newlib/c++/10.3.1/bits/stl_vector.h ****       _M_get_Tp_allocator() const _GLIBCXX_NOEXCEPT
 281:/usr/include/newlib/c++/10.3.1/bits/stl_vector.h ****       { return this->_M_impl; }
 282:/usr/include/newlib/c++/10.3.1/bits/stl_vector.h **** 
 283:/usr/include/newlib/c++/10.3.1/bits/stl_vector.h ****       allocator_type
 284:/usr/include/newlib/c++/10.3.1/bits/stl_vector.h ****       get_allocator() const _GLIBCXX_NOEXCEPT
 285:/usr/include/newlib/c++/10.3.1/bits/stl_vector.h ****       { return allocator_type(_M_get_Tp_allocator()); }
 286:/usr/include/newlib/c++/10.3.1/bits/stl_vector.h **** 
 287:/usr/include/newlib/c++/10.3.1/bits/stl_vector.h **** #if __cplusplus >= 201103L
 288:/usr/include/newlib/c++/10.3.1/bits/stl_vector.h ****       _Vector_base() = default;
 289:/usr/include/newlib/c++/10.3.1/bits/stl_vector.h **** #else
 290:/usr/include/newlib/c++/10.3.1/bits/stl_vector.h ****       _Vector_base() { }
 291:/usr/include/newlib/c++/10.3.1/bits/stl_vector.h **** #endif
 292:/usr/include/newlib/c++/10.3.1/bits/stl_vector.h **** 
 293:/usr/include/newlib/c++/10.3.1/bits/stl_vector.h ****       _Vector_base(const allocator_type& __a) _GLIBCXX_NOEXCEPT
 294:/usr/include/newlib/c++/10.3.1/bits/stl_vector.h ****       : _M_impl(__a) { }
 295:/usr/include/newlib/c++/10.3.1/bits/stl_vector.h **** 
 296:/usr/include/newlib/c++/10.3.1/bits/stl_vector.h ****       // Kept for ABI compatibility.
 297:/usr/include/newlib/c++/10.3.1/bits/stl_vector.h **** #if !_GLIBCXX_INLINE_VERSION
 298:/usr/include/newlib/c++/10.3.1/bits/stl_vector.h ****       _Vector_base(size_t __n)
 299:/usr/include/newlib/c++/10.3.1/bits/stl_vector.h ****       : _M_impl()
 300:/usr/include/newlib/c++/10.3.1/bits/stl_vector.h ****       { _M_create_storage(__n); }
 301:/usr/include/newlib/c++/10.3.1/bits/stl_vector.h **** #endif
 302:/usr/include/newlib/c++/10.3.1/bits/stl_vector.h **** 
 303:/usr/include/newlib/c++/10.3.1/bits/stl_vector.h ****       _Vector_base(size_t __n, const allocator_type& __a)
 304:/usr/include/newlib/c++/10.3.1/bits/stl_vector.h ****       : _M_impl(__a)
 305:/usr/include/newlib/c++/10.3.1/bits/stl_vector.h ****       { _M_create_storage(__n); }
 306:/usr/include/newlib/c++/10.3.1/bits/stl_vector.h **** 
 307:/usr/include/newlib/c++/10.3.1/bits/stl_vector.h **** #if __cplusplus >= 201103L
 308:/usr/include/newlib/c++/10.3.1/bits/stl_vector.h ****       _Vector_base(_Vector_base&&) = default;
 309:/usr/include/newlib/c++/10.3.1/bits/stl_vector.h **** 
 310:/usr/include/newlib/c++/10.3.1/bits/stl_vector.h ****       // Kept for ABI compatibility.
 311:/usr/include/newlib/c++/10.3.1/bits/stl_vector.h **** # if !_GLIBCXX_INLINE_VERSION
 312:/usr/include/newlib/c++/10.3.1/bits/stl_vector.h ****       _Vector_base(_Tp_alloc_type&& __a) noexcept
 313:/usr/include/newlib/c++/10.3.1/bits/stl_vector.h ****       : _M_impl(std::move(__a)) { }
 314:/usr/include/newlib/c++/10.3.1/bits/stl_vector.h **** 
 315:/usr/include/newlib/c++/10.3.1/bits/stl_vector.h ****       _Vector_base(_Vector_base&& __x, const allocator_type& __a)
 316:/usr/include/newlib/c++/10.3.1/bits/stl_vector.h ****       : _M_impl(__a)
 317:/usr/include/newlib/c++/10.3.1/bits/stl_vector.h ****       {
 318:/usr/include/newlib/c++/10.3.1/bits/stl_vector.h **** 	if (__x.get_allocator() == __a)
 319:/usr/include/newlib/c++/10.3.1/bits/stl_vector.h **** 	  this->_M_impl._M_swap_data(__x._M_impl);
 320:/usr/include/newlib/c++/10.3.1/bits/stl_vector.h **** 	else
 321:/usr/include/newlib/c++/10.3.1/bits/stl_vector.h **** 	  {
 322:/usr/include/newlib/c++/10.3.1/bits/stl_vector.h **** 	    size_t __n = __x._M_impl._M_finish - __x._M_impl._M_start;
 323:/usr/include/newlib/c++/10.3.1/bits/stl_vector.h **** 	    _M_create_storage(__n);
 324:/usr/include/newlib/c++/10.3.1/bits/stl_vector.h **** 	  }
 325:/usr/include/newlib/c++/10.3.1/bits/stl_vector.h ****       }
 326:/usr/include/newlib/c++/10.3.1/bits/stl_vector.h **** # endif
 327:/usr/include/newlib/c++/10.3.1/bits/stl_vector.h **** 
ARM GAS  /tmp/ccRLs6kU.s 			page 38


 328:/usr/include/newlib/c++/10.3.1/bits/stl_vector.h ****       _Vector_base(const allocator_type& __a, _Vector_base&& __x)
 329:/usr/include/newlib/c++/10.3.1/bits/stl_vector.h ****       : _M_impl(_Tp_alloc_type(__a), std::move(__x._M_impl))
 330:/usr/include/newlib/c++/10.3.1/bits/stl_vector.h ****       { }
 331:/usr/include/newlib/c++/10.3.1/bits/stl_vector.h **** #endif
 332:/usr/include/newlib/c++/10.3.1/bits/stl_vector.h **** 
 333:/usr/include/newlib/c++/10.3.1/bits/stl_vector.h ****       ~_Vector_base() _GLIBCXX_NOEXCEPT
 491              		.loc 6 333 7 is_stmt 1 view -0
 492              		.cfi_startproc
 493              		@ args = 0, pretend = 0, frame = 0
 494              		@ frame_needed = 0, uses_anonymous_args = 0
 495              		.loc 6 333 7 is_stmt 0 view .LVU101
 496 0000 10B5     		push	{r4, lr}
 497              	.LCFI8:
 498              		.cfi_def_cfa_offset 8
 499              		.cfi_offset 4, -8
 500              		.cfi_offset 14, -4
 501 0002 0446     		mov	r4, r0
 502              	.LBB405:
 334:/usr/include/newlib/c++/10.3.1/bits/stl_vector.h ****       {
 335:/usr/include/newlib/c++/10.3.1/bits/stl_vector.h **** 	_M_deallocate(_M_impl._M_start,
 503              		.loc 6 335 15 view .LVU102
 504 0004 0068     		ldr	r0, [r0]
 505              	.LVL41:
 336:/usr/include/newlib/c++/10.3.1/bits/stl_vector.h **** 		      _M_impl._M_end_of_storage - _M_impl._M_start);
 506              		.loc 6 336 17 view .LVU103
 507 0006 A168     		ldr	r1, [r4, #8]
 508              		.loc 6 336 35 view .LVU104
 509 0008 091A     		subs	r1, r1, r0
 510              	.LVL42:
 511              	.LBB406:
 512              	.LBI406:
 337:/usr/include/newlib/c++/10.3.1/bits/stl_vector.h ****       }
 338:/usr/include/newlib/c++/10.3.1/bits/stl_vector.h **** 
 339:/usr/include/newlib/c++/10.3.1/bits/stl_vector.h ****     public:
 340:/usr/include/newlib/c++/10.3.1/bits/stl_vector.h ****       _Vector_impl _M_impl;
 341:/usr/include/newlib/c++/10.3.1/bits/stl_vector.h **** 
 342:/usr/include/newlib/c++/10.3.1/bits/stl_vector.h ****       pointer
 343:/usr/include/newlib/c++/10.3.1/bits/stl_vector.h ****       _M_allocate(size_t __n)
 344:/usr/include/newlib/c++/10.3.1/bits/stl_vector.h ****       {
 345:/usr/include/newlib/c++/10.3.1/bits/stl_vector.h **** 	typedef __gnu_cxx::__alloc_traits<_Tp_alloc_type> _Tr;
 346:/usr/include/newlib/c++/10.3.1/bits/stl_vector.h **** 	return __n != 0 ? _Tr::allocate(_M_impl, __n) : pointer();
 347:/usr/include/newlib/c++/10.3.1/bits/stl_vector.h ****       }
 348:/usr/include/newlib/c++/10.3.1/bits/stl_vector.h **** 
 349:/usr/include/newlib/c++/10.3.1/bits/stl_vector.h ****       void
 350:/usr/include/newlib/c++/10.3.1/bits/stl_vector.h ****       _M_deallocate(pointer __p, size_t __n)
 513              		.loc 6 350 7 is_stmt 1 view .LVU105
 514              	.LBB407:
 351:/usr/include/newlib/c++/10.3.1/bits/stl_vector.h ****       {
 352:/usr/include/newlib/c++/10.3.1/bits/stl_vector.h **** 	typedef __gnu_cxx::__alloc_traits<_Tp_alloc_type> _Tr;
 353:/usr/include/newlib/c++/10.3.1/bits/stl_vector.h **** 	if (__p)
 515              		.loc 6 353 2 is_stmt 0 view .LVU106
 516 000a 08B1     		cbz	r0, .L30
 517              	.LVL43:
 518              	.LBB408:
 519              	.LBI408:
 520              		.file 7 "/usr/include/newlib/c++/10.3.1/bits/alloc_traits.h"
   1:/usr/include/newlib/c++/10.3.1/bits/alloc_traits.h **** // Allocator traits -*- C++ -*-
ARM GAS  /tmp/ccRLs6kU.s 			page 39


   2:/usr/include/newlib/c++/10.3.1/bits/alloc_traits.h **** 
   3:/usr/include/newlib/c++/10.3.1/bits/alloc_traits.h **** // Copyright (C) 2011-2020 Free Software Foundation, Inc.
   4:/usr/include/newlib/c++/10.3.1/bits/alloc_traits.h **** //
   5:/usr/include/newlib/c++/10.3.1/bits/alloc_traits.h **** // This file is part of the GNU ISO C++ Library.  This library is free
   6:/usr/include/newlib/c++/10.3.1/bits/alloc_traits.h **** // software; you can redistribute it and/or modify it under the
   7:/usr/include/newlib/c++/10.3.1/bits/alloc_traits.h **** // terms of the GNU General Public License as published by the
   8:/usr/include/newlib/c++/10.3.1/bits/alloc_traits.h **** // Free Software Foundation; either version 3, or (at your option)
   9:/usr/include/newlib/c++/10.3.1/bits/alloc_traits.h **** // any later version.
  10:/usr/include/newlib/c++/10.3.1/bits/alloc_traits.h **** 
  11:/usr/include/newlib/c++/10.3.1/bits/alloc_traits.h **** // This library is distributed in the hope that it will be useful,
  12:/usr/include/newlib/c++/10.3.1/bits/alloc_traits.h **** // but WITHOUT ANY WARRANTY; without even the implied warranty of
  13:/usr/include/newlib/c++/10.3.1/bits/alloc_traits.h **** // MERCHANTABILITY or FITNESS FOR A PARTICULAR PURPOSE.  See the
  14:/usr/include/newlib/c++/10.3.1/bits/alloc_traits.h **** // GNU General Public License for more details.
  15:/usr/include/newlib/c++/10.3.1/bits/alloc_traits.h **** 
  16:/usr/include/newlib/c++/10.3.1/bits/alloc_traits.h **** // Under Section 7 of GPL version 3, you are granted additional
  17:/usr/include/newlib/c++/10.3.1/bits/alloc_traits.h **** // permissions described in the GCC Runtime Library Exception, version
  18:/usr/include/newlib/c++/10.3.1/bits/alloc_traits.h **** // 3.1, as published by the Free Software Foundation.
  19:/usr/include/newlib/c++/10.3.1/bits/alloc_traits.h **** 
  20:/usr/include/newlib/c++/10.3.1/bits/alloc_traits.h **** // You should have received a copy of the GNU General Public License and
  21:/usr/include/newlib/c++/10.3.1/bits/alloc_traits.h **** // a copy of the GCC Runtime Library Exception along with this program;
  22:/usr/include/newlib/c++/10.3.1/bits/alloc_traits.h **** // see the files COPYING3 and COPYING.RUNTIME respectively.  If not, see
  23:/usr/include/newlib/c++/10.3.1/bits/alloc_traits.h **** // <http://www.gnu.org/licenses/>.
  24:/usr/include/newlib/c++/10.3.1/bits/alloc_traits.h **** 
  25:/usr/include/newlib/c++/10.3.1/bits/alloc_traits.h **** /** @file bits/alloc_traits.h
  26:/usr/include/newlib/c++/10.3.1/bits/alloc_traits.h ****  *  This is an internal header file, included by other library headers.
  27:/usr/include/newlib/c++/10.3.1/bits/alloc_traits.h ****  *  Do not attempt to use it directly. @headername{memory}
  28:/usr/include/newlib/c++/10.3.1/bits/alloc_traits.h ****  */
  29:/usr/include/newlib/c++/10.3.1/bits/alloc_traits.h **** 
  30:/usr/include/newlib/c++/10.3.1/bits/alloc_traits.h **** #ifndef _ALLOC_TRAITS_H
  31:/usr/include/newlib/c++/10.3.1/bits/alloc_traits.h **** #define _ALLOC_TRAITS_H 1
  32:/usr/include/newlib/c++/10.3.1/bits/alloc_traits.h **** 
  33:/usr/include/newlib/c++/10.3.1/bits/alloc_traits.h **** #include <bits/stl_construct.h>
  34:/usr/include/newlib/c++/10.3.1/bits/alloc_traits.h **** #include <bits/memoryfwd.h>
  35:/usr/include/newlib/c++/10.3.1/bits/alloc_traits.h **** #if __cplusplus >= 201103L
  36:/usr/include/newlib/c++/10.3.1/bits/alloc_traits.h **** # include <bits/allocator.h>
  37:/usr/include/newlib/c++/10.3.1/bits/alloc_traits.h **** # include <bits/ptr_traits.h>
  38:/usr/include/newlib/c++/10.3.1/bits/alloc_traits.h **** # include <ext/numeric_traits.h>
  39:/usr/include/newlib/c++/10.3.1/bits/alloc_traits.h **** #endif
  40:/usr/include/newlib/c++/10.3.1/bits/alloc_traits.h **** 
  41:/usr/include/newlib/c++/10.3.1/bits/alloc_traits.h **** namespace std _GLIBCXX_VISIBILITY(default)
  42:/usr/include/newlib/c++/10.3.1/bits/alloc_traits.h **** {
  43:/usr/include/newlib/c++/10.3.1/bits/alloc_traits.h **** _GLIBCXX_BEGIN_NAMESPACE_VERSION
  44:/usr/include/newlib/c++/10.3.1/bits/alloc_traits.h **** 
  45:/usr/include/newlib/c++/10.3.1/bits/alloc_traits.h **** #if __cplusplus >= 201103L
  46:/usr/include/newlib/c++/10.3.1/bits/alloc_traits.h **** #define __cpp_lib_allocator_traits_is_always_equal 201411
  47:/usr/include/newlib/c++/10.3.1/bits/alloc_traits.h **** 
  48:/usr/include/newlib/c++/10.3.1/bits/alloc_traits.h ****   struct __allocator_traits_base
  49:/usr/include/newlib/c++/10.3.1/bits/alloc_traits.h ****   {
  50:/usr/include/newlib/c++/10.3.1/bits/alloc_traits.h ****     template<typename _Tp, typename _Up, typename = void>
  51:/usr/include/newlib/c++/10.3.1/bits/alloc_traits.h ****       struct __rebind : __replace_first_arg<_Tp, _Up> { };
  52:/usr/include/newlib/c++/10.3.1/bits/alloc_traits.h **** 
  53:/usr/include/newlib/c++/10.3.1/bits/alloc_traits.h ****     template<typename _Tp, typename _Up>
  54:/usr/include/newlib/c++/10.3.1/bits/alloc_traits.h ****       struct __rebind<_Tp, _Up,
  55:/usr/include/newlib/c++/10.3.1/bits/alloc_traits.h **** 		      __void_t<typename _Tp::template rebind<_Up>::other>>
  56:/usr/include/newlib/c++/10.3.1/bits/alloc_traits.h ****       { using type = typename _Tp::template rebind<_Up>::other; };
  57:/usr/include/newlib/c++/10.3.1/bits/alloc_traits.h **** 
  58:/usr/include/newlib/c++/10.3.1/bits/alloc_traits.h ****   protected:
ARM GAS  /tmp/ccRLs6kU.s 			page 40


  59:/usr/include/newlib/c++/10.3.1/bits/alloc_traits.h ****     template<typename _Tp>
  60:/usr/include/newlib/c++/10.3.1/bits/alloc_traits.h ****       using __pointer = typename _Tp::pointer;
  61:/usr/include/newlib/c++/10.3.1/bits/alloc_traits.h ****     template<typename _Tp>
  62:/usr/include/newlib/c++/10.3.1/bits/alloc_traits.h ****       using __c_pointer = typename _Tp::const_pointer;
  63:/usr/include/newlib/c++/10.3.1/bits/alloc_traits.h ****     template<typename _Tp>
  64:/usr/include/newlib/c++/10.3.1/bits/alloc_traits.h ****       using __v_pointer = typename _Tp::void_pointer;
  65:/usr/include/newlib/c++/10.3.1/bits/alloc_traits.h ****     template<typename _Tp>
  66:/usr/include/newlib/c++/10.3.1/bits/alloc_traits.h ****       using __cv_pointer = typename _Tp::const_void_pointer;
  67:/usr/include/newlib/c++/10.3.1/bits/alloc_traits.h ****     template<typename _Tp>
  68:/usr/include/newlib/c++/10.3.1/bits/alloc_traits.h ****       using __pocca = typename _Tp::propagate_on_container_copy_assignment;
  69:/usr/include/newlib/c++/10.3.1/bits/alloc_traits.h ****     template<typename _Tp>
  70:/usr/include/newlib/c++/10.3.1/bits/alloc_traits.h ****       using __pocma = typename _Tp::propagate_on_container_move_assignment;
  71:/usr/include/newlib/c++/10.3.1/bits/alloc_traits.h ****     template<typename _Tp>
  72:/usr/include/newlib/c++/10.3.1/bits/alloc_traits.h ****       using __pocs = typename _Tp::propagate_on_container_swap;
  73:/usr/include/newlib/c++/10.3.1/bits/alloc_traits.h ****     template<typename _Tp>
  74:/usr/include/newlib/c++/10.3.1/bits/alloc_traits.h ****       using __equal = typename _Tp::is_always_equal;
  75:/usr/include/newlib/c++/10.3.1/bits/alloc_traits.h ****   };
  76:/usr/include/newlib/c++/10.3.1/bits/alloc_traits.h **** 
  77:/usr/include/newlib/c++/10.3.1/bits/alloc_traits.h ****   template<typename _Alloc, typename _Up>
  78:/usr/include/newlib/c++/10.3.1/bits/alloc_traits.h ****     using __alloc_rebind
  79:/usr/include/newlib/c++/10.3.1/bits/alloc_traits.h ****       = typename __allocator_traits_base::template __rebind<_Alloc, _Up>::type;
  80:/usr/include/newlib/c++/10.3.1/bits/alloc_traits.h **** 
  81:/usr/include/newlib/c++/10.3.1/bits/alloc_traits.h ****   /**
  82:/usr/include/newlib/c++/10.3.1/bits/alloc_traits.h ****    * @brief  Uniform interface to all allocator types.
  83:/usr/include/newlib/c++/10.3.1/bits/alloc_traits.h ****    * @ingroup allocators
  84:/usr/include/newlib/c++/10.3.1/bits/alloc_traits.h ****   */
  85:/usr/include/newlib/c++/10.3.1/bits/alloc_traits.h ****   template<typename _Alloc>
  86:/usr/include/newlib/c++/10.3.1/bits/alloc_traits.h ****     struct allocator_traits : __allocator_traits_base
  87:/usr/include/newlib/c++/10.3.1/bits/alloc_traits.h ****     {
  88:/usr/include/newlib/c++/10.3.1/bits/alloc_traits.h ****       /// The allocator type
  89:/usr/include/newlib/c++/10.3.1/bits/alloc_traits.h ****       typedef _Alloc allocator_type;
  90:/usr/include/newlib/c++/10.3.1/bits/alloc_traits.h ****       /// The allocated type
  91:/usr/include/newlib/c++/10.3.1/bits/alloc_traits.h ****       typedef typename _Alloc::value_type value_type;
  92:/usr/include/newlib/c++/10.3.1/bits/alloc_traits.h **** 
  93:/usr/include/newlib/c++/10.3.1/bits/alloc_traits.h ****       /**
  94:/usr/include/newlib/c++/10.3.1/bits/alloc_traits.h ****        * @brief   The allocator's pointer type.
  95:/usr/include/newlib/c++/10.3.1/bits/alloc_traits.h ****        *
  96:/usr/include/newlib/c++/10.3.1/bits/alloc_traits.h ****        * @c Alloc::pointer if that type exists, otherwise @c value_type*
  97:/usr/include/newlib/c++/10.3.1/bits/alloc_traits.h ****       */
  98:/usr/include/newlib/c++/10.3.1/bits/alloc_traits.h ****       using pointer = __detected_or_t<value_type*, __pointer, _Alloc>;
  99:/usr/include/newlib/c++/10.3.1/bits/alloc_traits.h **** 
 100:/usr/include/newlib/c++/10.3.1/bits/alloc_traits.h ****     private:
 101:/usr/include/newlib/c++/10.3.1/bits/alloc_traits.h ****       // Select _Func<_Alloc> or pointer_traits<pointer>::rebind<_Tp>
 102:/usr/include/newlib/c++/10.3.1/bits/alloc_traits.h ****       template<template<typename> class _Func, typename _Tp, typename = void>
 103:/usr/include/newlib/c++/10.3.1/bits/alloc_traits.h **** 	struct _Ptr
 104:/usr/include/newlib/c++/10.3.1/bits/alloc_traits.h **** 	{
 105:/usr/include/newlib/c++/10.3.1/bits/alloc_traits.h **** 	  using type = typename pointer_traits<pointer>::template rebind<_Tp>;
 106:/usr/include/newlib/c++/10.3.1/bits/alloc_traits.h **** 	};
 107:/usr/include/newlib/c++/10.3.1/bits/alloc_traits.h **** 
 108:/usr/include/newlib/c++/10.3.1/bits/alloc_traits.h ****       template<template<typename> class _Func, typename _Tp>
 109:/usr/include/newlib/c++/10.3.1/bits/alloc_traits.h **** 	struct _Ptr<_Func, _Tp, __void_t<_Func<_Alloc>>>
 110:/usr/include/newlib/c++/10.3.1/bits/alloc_traits.h **** 	{
 111:/usr/include/newlib/c++/10.3.1/bits/alloc_traits.h **** 	  using type = _Func<_Alloc>;
 112:/usr/include/newlib/c++/10.3.1/bits/alloc_traits.h **** 	};
 113:/usr/include/newlib/c++/10.3.1/bits/alloc_traits.h **** 
 114:/usr/include/newlib/c++/10.3.1/bits/alloc_traits.h ****       // Select _A2::difference_type or pointer_traits<_Ptr>::difference_type
 115:/usr/include/newlib/c++/10.3.1/bits/alloc_traits.h ****       template<typename _A2, typename _PtrT, typename = void>
ARM GAS  /tmp/ccRLs6kU.s 			page 41


 116:/usr/include/newlib/c++/10.3.1/bits/alloc_traits.h **** 	struct _Diff
 117:/usr/include/newlib/c++/10.3.1/bits/alloc_traits.h **** 	{ using type = typename pointer_traits<_PtrT>::difference_type; };
 118:/usr/include/newlib/c++/10.3.1/bits/alloc_traits.h **** 
 119:/usr/include/newlib/c++/10.3.1/bits/alloc_traits.h ****       template<typename _A2, typename _PtrT>
 120:/usr/include/newlib/c++/10.3.1/bits/alloc_traits.h **** 	struct _Diff<_A2, _PtrT, __void_t<typename _A2::difference_type>>
 121:/usr/include/newlib/c++/10.3.1/bits/alloc_traits.h **** 	{ using type = typename _A2::difference_type; };
 122:/usr/include/newlib/c++/10.3.1/bits/alloc_traits.h **** 
 123:/usr/include/newlib/c++/10.3.1/bits/alloc_traits.h ****       // Select _A2::size_type or make_unsigned<_DiffT>::type
 124:/usr/include/newlib/c++/10.3.1/bits/alloc_traits.h ****       template<typename _A2, typename _DiffT, typename = void>
 125:/usr/include/newlib/c++/10.3.1/bits/alloc_traits.h **** 	struct _Size : make_unsigned<_DiffT> { };
 126:/usr/include/newlib/c++/10.3.1/bits/alloc_traits.h **** 
 127:/usr/include/newlib/c++/10.3.1/bits/alloc_traits.h ****       template<typename _A2, typename _DiffT>
 128:/usr/include/newlib/c++/10.3.1/bits/alloc_traits.h **** 	struct _Size<_A2, _DiffT, __void_t<typename _A2::size_type>>
 129:/usr/include/newlib/c++/10.3.1/bits/alloc_traits.h **** 	{ using type = typename _A2::size_type; };
 130:/usr/include/newlib/c++/10.3.1/bits/alloc_traits.h **** 
 131:/usr/include/newlib/c++/10.3.1/bits/alloc_traits.h ****     public:
 132:/usr/include/newlib/c++/10.3.1/bits/alloc_traits.h ****       /**
 133:/usr/include/newlib/c++/10.3.1/bits/alloc_traits.h ****        * @brief   The allocator's const pointer type.
 134:/usr/include/newlib/c++/10.3.1/bits/alloc_traits.h ****        *
 135:/usr/include/newlib/c++/10.3.1/bits/alloc_traits.h ****        * @c Alloc::const_pointer if that type exists, otherwise
 136:/usr/include/newlib/c++/10.3.1/bits/alloc_traits.h ****        * <tt> pointer_traits<pointer>::rebind<const value_type> </tt>
 137:/usr/include/newlib/c++/10.3.1/bits/alloc_traits.h ****       */
 138:/usr/include/newlib/c++/10.3.1/bits/alloc_traits.h ****       using const_pointer = typename _Ptr<__c_pointer, const value_type>::type;
 139:/usr/include/newlib/c++/10.3.1/bits/alloc_traits.h **** 
 140:/usr/include/newlib/c++/10.3.1/bits/alloc_traits.h ****       /**
 141:/usr/include/newlib/c++/10.3.1/bits/alloc_traits.h ****        * @brief   The allocator's void pointer type.
 142:/usr/include/newlib/c++/10.3.1/bits/alloc_traits.h ****        *
 143:/usr/include/newlib/c++/10.3.1/bits/alloc_traits.h ****        * @c Alloc::void_pointer if that type exists, otherwise
 144:/usr/include/newlib/c++/10.3.1/bits/alloc_traits.h ****        * <tt> pointer_traits<pointer>::rebind<void> </tt>
 145:/usr/include/newlib/c++/10.3.1/bits/alloc_traits.h ****       */
 146:/usr/include/newlib/c++/10.3.1/bits/alloc_traits.h ****       using void_pointer = typename _Ptr<__v_pointer, void>::type;
 147:/usr/include/newlib/c++/10.3.1/bits/alloc_traits.h **** 
 148:/usr/include/newlib/c++/10.3.1/bits/alloc_traits.h ****       /**
 149:/usr/include/newlib/c++/10.3.1/bits/alloc_traits.h ****        * @brief   The allocator's const void pointer type.
 150:/usr/include/newlib/c++/10.3.1/bits/alloc_traits.h ****        *
 151:/usr/include/newlib/c++/10.3.1/bits/alloc_traits.h ****        * @c Alloc::const_void_pointer if that type exists, otherwise
 152:/usr/include/newlib/c++/10.3.1/bits/alloc_traits.h ****        * <tt> pointer_traits<pointer>::rebind<const void> </tt>
 153:/usr/include/newlib/c++/10.3.1/bits/alloc_traits.h ****       */
 154:/usr/include/newlib/c++/10.3.1/bits/alloc_traits.h ****       using const_void_pointer = typename _Ptr<__cv_pointer, const void>::type;
 155:/usr/include/newlib/c++/10.3.1/bits/alloc_traits.h **** 
 156:/usr/include/newlib/c++/10.3.1/bits/alloc_traits.h ****       /**
 157:/usr/include/newlib/c++/10.3.1/bits/alloc_traits.h ****        * @brief   The allocator's difference type
 158:/usr/include/newlib/c++/10.3.1/bits/alloc_traits.h ****        *
 159:/usr/include/newlib/c++/10.3.1/bits/alloc_traits.h ****        * @c Alloc::difference_type if that type exists, otherwise
 160:/usr/include/newlib/c++/10.3.1/bits/alloc_traits.h ****        * <tt> pointer_traits<pointer>::difference_type </tt>
 161:/usr/include/newlib/c++/10.3.1/bits/alloc_traits.h ****       */
 162:/usr/include/newlib/c++/10.3.1/bits/alloc_traits.h ****       using difference_type = typename _Diff<_Alloc, pointer>::type;
 163:/usr/include/newlib/c++/10.3.1/bits/alloc_traits.h **** 
 164:/usr/include/newlib/c++/10.3.1/bits/alloc_traits.h ****       /**
 165:/usr/include/newlib/c++/10.3.1/bits/alloc_traits.h ****        * @brief   The allocator's size type
 166:/usr/include/newlib/c++/10.3.1/bits/alloc_traits.h ****        *
 167:/usr/include/newlib/c++/10.3.1/bits/alloc_traits.h ****        * @c Alloc::size_type if that type exists, otherwise
 168:/usr/include/newlib/c++/10.3.1/bits/alloc_traits.h ****        * <tt> make_unsigned<difference_type>::type </tt>
 169:/usr/include/newlib/c++/10.3.1/bits/alloc_traits.h ****       */
 170:/usr/include/newlib/c++/10.3.1/bits/alloc_traits.h ****       using size_type = typename _Size<_Alloc, difference_type>::type;
 171:/usr/include/newlib/c++/10.3.1/bits/alloc_traits.h **** 
 172:/usr/include/newlib/c++/10.3.1/bits/alloc_traits.h ****       /**
ARM GAS  /tmp/ccRLs6kU.s 			page 42


 173:/usr/include/newlib/c++/10.3.1/bits/alloc_traits.h ****        * @brief   How the allocator is propagated on copy assignment
 174:/usr/include/newlib/c++/10.3.1/bits/alloc_traits.h ****        *
 175:/usr/include/newlib/c++/10.3.1/bits/alloc_traits.h ****        * @c Alloc::propagate_on_container_copy_assignment if that type exists,
 176:/usr/include/newlib/c++/10.3.1/bits/alloc_traits.h ****        * otherwise @c false_type
 177:/usr/include/newlib/c++/10.3.1/bits/alloc_traits.h ****       */
 178:/usr/include/newlib/c++/10.3.1/bits/alloc_traits.h ****       using propagate_on_container_copy_assignment
 179:/usr/include/newlib/c++/10.3.1/bits/alloc_traits.h **** 	= __detected_or_t<false_type, __pocca, _Alloc>;
 180:/usr/include/newlib/c++/10.3.1/bits/alloc_traits.h **** 
 181:/usr/include/newlib/c++/10.3.1/bits/alloc_traits.h ****       /**
 182:/usr/include/newlib/c++/10.3.1/bits/alloc_traits.h ****        * @brief   How the allocator is propagated on move assignment
 183:/usr/include/newlib/c++/10.3.1/bits/alloc_traits.h ****        *
 184:/usr/include/newlib/c++/10.3.1/bits/alloc_traits.h ****        * @c Alloc::propagate_on_container_move_assignment if that type exists,
 185:/usr/include/newlib/c++/10.3.1/bits/alloc_traits.h ****        * otherwise @c false_type
 186:/usr/include/newlib/c++/10.3.1/bits/alloc_traits.h ****       */
 187:/usr/include/newlib/c++/10.3.1/bits/alloc_traits.h ****       using propagate_on_container_move_assignment
 188:/usr/include/newlib/c++/10.3.1/bits/alloc_traits.h **** 	= __detected_or_t<false_type, __pocma, _Alloc>;
 189:/usr/include/newlib/c++/10.3.1/bits/alloc_traits.h **** 
 190:/usr/include/newlib/c++/10.3.1/bits/alloc_traits.h ****       /**
 191:/usr/include/newlib/c++/10.3.1/bits/alloc_traits.h ****        * @brief   How the allocator is propagated on swap
 192:/usr/include/newlib/c++/10.3.1/bits/alloc_traits.h ****        *
 193:/usr/include/newlib/c++/10.3.1/bits/alloc_traits.h ****        * @c Alloc::propagate_on_container_swap if that type exists,
 194:/usr/include/newlib/c++/10.3.1/bits/alloc_traits.h ****        * otherwise @c false_type
 195:/usr/include/newlib/c++/10.3.1/bits/alloc_traits.h ****       */
 196:/usr/include/newlib/c++/10.3.1/bits/alloc_traits.h ****       using propagate_on_container_swap
 197:/usr/include/newlib/c++/10.3.1/bits/alloc_traits.h **** 	= __detected_or_t<false_type, __pocs, _Alloc>;
 198:/usr/include/newlib/c++/10.3.1/bits/alloc_traits.h **** 
 199:/usr/include/newlib/c++/10.3.1/bits/alloc_traits.h ****       /**
 200:/usr/include/newlib/c++/10.3.1/bits/alloc_traits.h ****        * @brief   Whether all instances of the allocator type compare equal.
 201:/usr/include/newlib/c++/10.3.1/bits/alloc_traits.h ****        *
 202:/usr/include/newlib/c++/10.3.1/bits/alloc_traits.h ****        * @c Alloc::is_always_equal if that type exists,
 203:/usr/include/newlib/c++/10.3.1/bits/alloc_traits.h ****        * otherwise @c is_empty<Alloc>::type
 204:/usr/include/newlib/c++/10.3.1/bits/alloc_traits.h ****       */
 205:/usr/include/newlib/c++/10.3.1/bits/alloc_traits.h ****       using is_always_equal
 206:/usr/include/newlib/c++/10.3.1/bits/alloc_traits.h **** 	= __detected_or_t<typename is_empty<_Alloc>::type, __equal, _Alloc>;
 207:/usr/include/newlib/c++/10.3.1/bits/alloc_traits.h **** 
 208:/usr/include/newlib/c++/10.3.1/bits/alloc_traits.h ****       template<typename _Tp>
 209:/usr/include/newlib/c++/10.3.1/bits/alloc_traits.h **** 	using rebind_alloc = __alloc_rebind<_Alloc, _Tp>;
 210:/usr/include/newlib/c++/10.3.1/bits/alloc_traits.h ****       template<typename _Tp>
 211:/usr/include/newlib/c++/10.3.1/bits/alloc_traits.h **** 	using rebind_traits = allocator_traits<rebind_alloc<_Tp>>;
 212:/usr/include/newlib/c++/10.3.1/bits/alloc_traits.h **** 
 213:/usr/include/newlib/c++/10.3.1/bits/alloc_traits.h ****     private:
 214:/usr/include/newlib/c++/10.3.1/bits/alloc_traits.h ****       template<typename _Alloc2>
 215:/usr/include/newlib/c++/10.3.1/bits/alloc_traits.h **** 	static constexpr auto
 216:/usr/include/newlib/c++/10.3.1/bits/alloc_traits.h **** 	_S_allocate(_Alloc2& __a, size_type __n, const_void_pointer __hint, int)
 217:/usr/include/newlib/c++/10.3.1/bits/alloc_traits.h **** 	-> decltype(__a.allocate(__n, __hint))
 218:/usr/include/newlib/c++/10.3.1/bits/alloc_traits.h **** 	{ return __a.allocate(__n, __hint); }
 219:/usr/include/newlib/c++/10.3.1/bits/alloc_traits.h **** 
 220:/usr/include/newlib/c++/10.3.1/bits/alloc_traits.h ****       template<typename _Alloc2>
 221:/usr/include/newlib/c++/10.3.1/bits/alloc_traits.h **** 	static constexpr pointer
 222:/usr/include/newlib/c++/10.3.1/bits/alloc_traits.h **** 	_S_allocate(_Alloc2& __a, size_type __n, const_void_pointer, ...)
 223:/usr/include/newlib/c++/10.3.1/bits/alloc_traits.h **** 	{ return __a.allocate(__n); }
 224:/usr/include/newlib/c++/10.3.1/bits/alloc_traits.h **** 
 225:/usr/include/newlib/c++/10.3.1/bits/alloc_traits.h ****       template<typename _Tp, typename... _Args>
 226:/usr/include/newlib/c++/10.3.1/bits/alloc_traits.h **** 	struct __construct_helper
 227:/usr/include/newlib/c++/10.3.1/bits/alloc_traits.h **** 	{
 228:/usr/include/newlib/c++/10.3.1/bits/alloc_traits.h **** 	  template<typename _Alloc2,
 229:/usr/include/newlib/c++/10.3.1/bits/alloc_traits.h **** 	    typename = decltype(std::declval<_Alloc2*>()->construct(
ARM GAS  /tmp/ccRLs6kU.s 			page 43


 230:/usr/include/newlib/c++/10.3.1/bits/alloc_traits.h **** 		  std::declval<_Tp*>(), std::declval<_Args>()...))>
 231:/usr/include/newlib/c++/10.3.1/bits/alloc_traits.h **** 	    static true_type __test(int);
 232:/usr/include/newlib/c++/10.3.1/bits/alloc_traits.h **** 
 233:/usr/include/newlib/c++/10.3.1/bits/alloc_traits.h **** 	  template<typename>
 234:/usr/include/newlib/c++/10.3.1/bits/alloc_traits.h **** 	    static false_type __test(...);
 235:/usr/include/newlib/c++/10.3.1/bits/alloc_traits.h **** 
 236:/usr/include/newlib/c++/10.3.1/bits/alloc_traits.h **** 	  using type = decltype(__test<_Alloc>(0));
 237:/usr/include/newlib/c++/10.3.1/bits/alloc_traits.h **** 	};
 238:/usr/include/newlib/c++/10.3.1/bits/alloc_traits.h **** 
 239:/usr/include/newlib/c++/10.3.1/bits/alloc_traits.h ****       template<typename _Tp, typename... _Args>
 240:/usr/include/newlib/c++/10.3.1/bits/alloc_traits.h **** 	using __has_construct
 241:/usr/include/newlib/c++/10.3.1/bits/alloc_traits.h **** 	  = typename __construct_helper<_Tp, _Args...>::type;
 242:/usr/include/newlib/c++/10.3.1/bits/alloc_traits.h **** 
 243:/usr/include/newlib/c++/10.3.1/bits/alloc_traits.h ****       template<typename _Tp, typename... _Args>
 244:/usr/include/newlib/c++/10.3.1/bits/alloc_traits.h **** 	static _GLIBCXX14_CONSTEXPR _Require<__has_construct<_Tp, _Args...>>
 245:/usr/include/newlib/c++/10.3.1/bits/alloc_traits.h **** 	_S_construct(_Alloc& __a, _Tp* __p, _Args&&... __args)
 246:/usr/include/newlib/c++/10.3.1/bits/alloc_traits.h **** 	noexcept(noexcept(__a.construct(__p, std::forward<_Args>(__args)...)))
 247:/usr/include/newlib/c++/10.3.1/bits/alloc_traits.h **** 	{ __a.construct(__p, std::forward<_Args>(__args)...); }
 248:/usr/include/newlib/c++/10.3.1/bits/alloc_traits.h **** 
 249:/usr/include/newlib/c++/10.3.1/bits/alloc_traits.h ****       template<typename _Tp, typename... _Args>
 250:/usr/include/newlib/c++/10.3.1/bits/alloc_traits.h **** 	static _GLIBCXX14_CONSTEXPR
 251:/usr/include/newlib/c++/10.3.1/bits/alloc_traits.h **** 	_Require<__and_<__not_<__has_construct<_Tp, _Args...>>,
 252:/usr/include/newlib/c++/10.3.1/bits/alloc_traits.h **** 			       is_constructible<_Tp, _Args...>>>
 253:/usr/include/newlib/c++/10.3.1/bits/alloc_traits.h **** 	_S_construct(_Alloc&, _Tp* __p, _Args&&... __args)
 254:/usr/include/newlib/c++/10.3.1/bits/alloc_traits.h **** 	noexcept(std::is_nothrow_constructible<_Tp, _Args...>::value)
 255:/usr/include/newlib/c++/10.3.1/bits/alloc_traits.h **** 	{
 256:/usr/include/newlib/c++/10.3.1/bits/alloc_traits.h **** #if __cplusplus <= 201703L
 257:/usr/include/newlib/c++/10.3.1/bits/alloc_traits.h **** 	  ::new((void*)__p) _Tp(std::forward<_Args>(__args)...);
 258:/usr/include/newlib/c++/10.3.1/bits/alloc_traits.h **** #else
 259:/usr/include/newlib/c++/10.3.1/bits/alloc_traits.h **** 	  std::construct_at(__p, std::forward<_Args>(__args)...);
 260:/usr/include/newlib/c++/10.3.1/bits/alloc_traits.h **** #endif
 261:/usr/include/newlib/c++/10.3.1/bits/alloc_traits.h **** 	}
 262:/usr/include/newlib/c++/10.3.1/bits/alloc_traits.h **** 
 263:/usr/include/newlib/c++/10.3.1/bits/alloc_traits.h ****       template<typename _Alloc2, typename _Tp>
 264:/usr/include/newlib/c++/10.3.1/bits/alloc_traits.h **** 	static _GLIBCXX14_CONSTEXPR auto
 265:/usr/include/newlib/c++/10.3.1/bits/alloc_traits.h **** 	_S_destroy(_Alloc2& __a, _Tp* __p, int)
 266:/usr/include/newlib/c++/10.3.1/bits/alloc_traits.h **** 	noexcept(noexcept(__a.destroy(__p)))
 267:/usr/include/newlib/c++/10.3.1/bits/alloc_traits.h **** 	-> decltype(__a.destroy(__p))
 268:/usr/include/newlib/c++/10.3.1/bits/alloc_traits.h **** 	{ __a.destroy(__p); }
 269:/usr/include/newlib/c++/10.3.1/bits/alloc_traits.h **** 
 270:/usr/include/newlib/c++/10.3.1/bits/alloc_traits.h ****       template<typename _Alloc2, typename _Tp>
 271:/usr/include/newlib/c++/10.3.1/bits/alloc_traits.h **** 	static _GLIBCXX14_CONSTEXPR void
 272:/usr/include/newlib/c++/10.3.1/bits/alloc_traits.h **** 	_S_destroy(_Alloc2&, _Tp* __p, ...)
 273:/usr/include/newlib/c++/10.3.1/bits/alloc_traits.h **** 	noexcept(std::is_nothrow_destructible<_Tp>::value)
 274:/usr/include/newlib/c++/10.3.1/bits/alloc_traits.h **** 	{ std::_Destroy(__p); }
 275:/usr/include/newlib/c++/10.3.1/bits/alloc_traits.h **** 
 276:/usr/include/newlib/c++/10.3.1/bits/alloc_traits.h ****       template<typename _Alloc2>
 277:/usr/include/newlib/c++/10.3.1/bits/alloc_traits.h **** 	static constexpr auto
 278:/usr/include/newlib/c++/10.3.1/bits/alloc_traits.h **** 	_S_max_size(_Alloc2& __a, int)
 279:/usr/include/newlib/c++/10.3.1/bits/alloc_traits.h **** 	-> decltype(__a.max_size())
 280:/usr/include/newlib/c++/10.3.1/bits/alloc_traits.h **** 	{ return __a.max_size(); }
 281:/usr/include/newlib/c++/10.3.1/bits/alloc_traits.h **** 
 282:/usr/include/newlib/c++/10.3.1/bits/alloc_traits.h ****       template<typename _Alloc2>
 283:/usr/include/newlib/c++/10.3.1/bits/alloc_traits.h **** 	static constexpr size_type
 284:/usr/include/newlib/c++/10.3.1/bits/alloc_traits.h **** 	_S_max_size(_Alloc2&, ...)
 285:/usr/include/newlib/c++/10.3.1/bits/alloc_traits.h **** 	{
 286:/usr/include/newlib/c++/10.3.1/bits/alloc_traits.h **** 	  // _GLIBCXX_RESOLVE_LIB_DEFECTS
ARM GAS  /tmp/ccRLs6kU.s 			page 44


 287:/usr/include/newlib/c++/10.3.1/bits/alloc_traits.h **** 	  // 2466. allocator_traits::max_size() default behavior is incorrect
 288:/usr/include/newlib/c++/10.3.1/bits/alloc_traits.h **** 	  return __gnu_cxx::__numeric_traits<size_type>::__max
 289:/usr/include/newlib/c++/10.3.1/bits/alloc_traits.h **** 	    / sizeof(value_type);
 290:/usr/include/newlib/c++/10.3.1/bits/alloc_traits.h **** 	}
 291:/usr/include/newlib/c++/10.3.1/bits/alloc_traits.h **** 
 292:/usr/include/newlib/c++/10.3.1/bits/alloc_traits.h ****       template<typename _Alloc2>
 293:/usr/include/newlib/c++/10.3.1/bits/alloc_traits.h **** 	static constexpr auto
 294:/usr/include/newlib/c++/10.3.1/bits/alloc_traits.h **** 	_S_select(_Alloc2& __a, int)
 295:/usr/include/newlib/c++/10.3.1/bits/alloc_traits.h **** 	-> decltype(__a.select_on_container_copy_construction())
 296:/usr/include/newlib/c++/10.3.1/bits/alloc_traits.h **** 	{ return __a.select_on_container_copy_construction(); }
 297:/usr/include/newlib/c++/10.3.1/bits/alloc_traits.h **** 
 298:/usr/include/newlib/c++/10.3.1/bits/alloc_traits.h ****       template<typename _Alloc2>
 299:/usr/include/newlib/c++/10.3.1/bits/alloc_traits.h **** 	static constexpr _Alloc2
 300:/usr/include/newlib/c++/10.3.1/bits/alloc_traits.h **** 	_S_select(_Alloc2& __a, ...)
 301:/usr/include/newlib/c++/10.3.1/bits/alloc_traits.h **** 	{ return __a; }
 302:/usr/include/newlib/c++/10.3.1/bits/alloc_traits.h **** 
 303:/usr/include/newlib/c++/10.3.1/bits/alloc_traits.h ****     public:
 304:/usr/include/newlib/c++/10.3.1/bits/alloc_traits.h **** 
 305:/usr/include/newlib/c++/10.3.1/bits/alloc_traits.h ****       /**
 306:/usr/include/newlib/c++/10.3.1/bits/alloc_traits.h ****        *  @brief  Allocate memory.
 307:/usr/include/newlib/c++/10.3.1/bits/alloc_traits.h ****        *  @param  __a  An allocator.
 308:/usr/include/newlib/c++/10.3.1/bits/alloc_traits.h ****        *  @param  __n  The number of objects to allocate space for.
 309:/usr/include/newlib/c++/10.3.1/bits/alloc_traits.h ****        *
 310:/usr/include/newlib/c++/10.3.1/bits/alloc_traits.h ****        *  Calls @c a.allocate(n)
 311:/usr/include/newlib/c++/10.3.1/bits/alloc_traits.h ****       */
 312:/usr/include/newlib/c++/10.3.1/bits/alloc_traits.h ****       _GLIBCXX_NODISCARD static _GLIBCXX20_CONSTEXPR pointer
 313:/usr/include/newlib/c++/10.3.1/bits/alloc_traits.h ****       allocate(_Alloc& __a, size_type __n)
 314:/usr/include/newlib/c++/10.3.1/bits/alloc_traits.h ****       { return __a.allocate(__n); }
 315:/usr/include/newlib/c++/10.3.1/bits/alloc_traits.h **** 
 316:/usr/include/newlib/c++/10.3.1/bits/alloc_traits.h ****       /**
 317:/usr/include/newlib/c++/10.3.1/bits/alloc_traits.h ****        *  @brief  Allocate memory.
 318:/usr/include/newlib/c++/10.3.1/bits/alloc_traits.h ****        *  @param  __a  An allocator.
 319:/usr/include/newlib/c++/10.3.1/bits/alloc_traits.h ****        *  @param  __n  The number of objects to allocate space for.
 320:/usr/include/newlib/c++/10.3.1/bits/alloc_traits.h ****        *  @param  __hint Aid to locality.
 321:/usr/include/newlib/c++/10.3.1/bits/alloc_traits.h ****        *  @return Memory of suitable size and alignment for @a n objects
 322:/usr/include/newlib/c++/10.3.1/bits/alloc_traits.h ****        *          of type @c value_type
 323:/usr/include/newlib/c++/10.3.1/bits/alloc_traits.h ****        *
 324:/usr/include/newlib/c++/10.3.1/bits/alloc_traits.h ****        *  Returns <tt> a.allocate(n, hint) </tt> if that expression is
 325:/usr/include/newlib/c++/10.3.1/bits/alloc_traits.h ****        *  well-formed, otherwise returns @c a.allocate(n)
 326:/usr/include/newlib/c++/10.3.1/bits/alloc_traits.h ****       */
 327:/usr/include/newlib/c++/10.3.1/bits/alloc_traits.h ****       _GLIBCXX_NODISCARD static _GLIBCXX20_CONSTEXPR pointer
 328:/usr/include/newlib/c++/10.3.1/bits/alloc_traits.h ****       allocate(_Alloc& __a, size_type __n, const_void_pointer __hint)
 329:/usr/include/newlib/c++/10.3.1/bits/alloc_traits.h ****       { return _S_allocate(__a, __n, __hint, 0); }
 330:/usr/include/newlib/c++/10.3.1/bits/alloc_traits.h **** 
 331:/usr/include/newlib/c++/10.3.1/bits/alloc_traits.h ****       /**
 332:/usr/include/newlib/c++/10.3.1/bits/alloc_traits.h ****        *  @brief  Deallocate memory.
 333:/usr/include/newlib/c++/10.3.1/bits/alloc_traits.h ****        *  @param  __a  An allocator.
 334:/usr/include/newlib/c++/10.3.1/bits/alloc_traits.h ****        *  @param  __p  Pointer to the memory to deallocate.
 335:/usr/include/newlib/c++/10.3.1/bits/alloc_traits.h ****        *  @param  __n  The number of objects space was allocated for.
 336:/usr/include/newlib/c++/10.3.1/bits/alloc_traits.h ****        *
 337:/usr/include/newlib/c++/10.3.1/bits/alloc_traits.h ****        *  Calls <tt> a.deallocate(p, n) </tt>
 338:/usr/include/newlib/c++/10.3.1/bits/alloc_traits.h ****       */
 339:/usr/include/newlib/c++/10.3.1/bits/alloc_traits.h ****       static _GLIBCXX20_CONSTEXPR void
 340:/usr/include/newlib/c++/10.3.1/bits/alloc_traits.h ****       deallocate(_Alloc& __a, pointer __p, size_type __n)
 341:/usr/include/newlib/c++/10.3.1/bits/alloc_traits.h ****       { __a.deallocate(__p, __n); }
 342:/usr/include/newlib/c++/10.3.1/bits/alloc_traits.h **** 
 343:/usr/include/newlib/c++/10.3.1/bits/alloc_traits.h ****       /**
ARM GAS  /tmp/ccRLs6kU.s 			page 45


 344:/usr/include/newlib/c++/10.3.1/bits/alloc_traits.h ****        *  @brief  Construct an object of type `_Tp`
 345:/usr/include/newlib/c++/10.3.1/bits/alloc_traits.h ****        *  @param  __a  An allocator.
 346:/usr/include/newlib/c++/10.3.1/bits/alloc_traits.h ****        *  @param  __p  Pointer to memory of suitable size and alignment for Tp
 347:/usr/include/newlib/c++/10.3.1/bits/alloc_traits.h ****        *  @param  __args Constructor arguments.
 348:/usr/include/newlib/c++/10.3.1/bits/alloc_traits.h ****        *
 349:/usr/include/newlib/c++/10.3.1/bits/alloc_traits.h ****        *  Calls <tt> __a.construct(__p, std::forward<Args>(__args)...) </tt>
 350:/usr/include/newlib/c++/10.3.1/bits/alloc_traits.h ****        *  if that expression is well-formed, otherwise uses placement-new
 351:/usr/include/newlib/c++/10.3.1/bits/alloc_traits.h ****        *  to construct an object of type @a _Tp at location @a __p from the
 352:/usr/include/newlib/c++/10.3.1/bits/alloc_traits.h ****        *  arguments @a __args...
 353:/usr/include/newlib/c++/10.3.1/bits/alloc_traits.h ****       */
 354:/usr/include/newlib/c++/10.3.1/bits/alloc_traits.h ****       template<typename _Tp, typename... _Args>
 355:/usr/include/newlib/c++/10.3.1/bits/alloc_traits.h **** 	static _GLIBCXX20_CONSTEXPR auto
 356:/usr/include/newlib/c++/10.3.1/bits/alloc_traits.h **** 	construct(_Alloc& __a, _Tp* __p, _Args&&... __args)
 357:/usr/include/newlib/c++/10.3.1/bits/alloc_traits.h **** 	noexcept(noexcept(_S_construct(__a, __p,
 358:/usr/include/newlib/c++/10.3.1/bits/alloc_traits.h **** 				       std::forward<_Args>(__args)...)))
 359:/usr/include/newlib/c++/10.3.1/bits/alloc_traits.h **** 	-> decltype(_S_construct(__a, __p, std::forward<_Args>(__args)...))
 360:/usr/include/newlib/c++/10.3.1/bits/alloc_traits.h **** 	{ _S_construct(__a, __p, std::forward<_Args>(__args)...); }
 361:/usr/include/newlib/c++/10.3.1/bits/alloc_traits.h **** 
 362:/usr/include/newlib/c++/10.3.1/bits/alloc_traits.h ****       /**
 363:/usr/include/newlib/c++/10.3.1/bits/alloc_traits.h ****        *  @brief  Destroy an object of type @a _Tp
 364:/usr/include/newlib/c++/10.3.1/bits/alloc_traits.h ****        *  @param  __a  An allocator.
 365:/usr/include/newlib/c++/10.3.1/bits/alloc_traits.h ****        *  @param  __p  Pointer to the object to destroy
 366:/usr/include/newlib/c++/10.3.1/bits/alloc_traits.h ****        *
 367:/usr/include/newlib/c++/10.3.1/bits/alloc_traits.h ****        *  Calls @c __a.destroy(__p) if that expression is well-formed,
 368:/usr/include/newlib/c++/10.3.1/bits/alloc_traits.h ****        *  otherwise calls @c __p->~_Tp()
 369:/usr/include/newlib/c++/10.3.1/bits/alloc_traits.h ****       */
 370:/usr/include/newlib/c++/10.3.1/bits/alloc_traits.h ****       template<typename _Tp>
 371:/usr/include/newlib/c++/10.3.1/bits/alloc_traits.h **** 	static _GLIBCXX20_CONSTEXPR void
 372:/usr/include/newlib/c++/10.3.1/bits/alloc_traits.h **** 	destroy(_Alloc& __a, _Tp* __p)
 373:/usr/include/newlib/c++/10.3.1/bits/alloc_traits.h **** 	noexcept(noexcept(_S_destroy(__a, __p, 0)))
 374:/usr/include/newlib/c++/10.3.1/bits/alloc_traits.h **** 	{ _S_destroy(__a, __p, 0); }
 375:/usr/include/newlib/c++/10.3.1/bits/alloc_traits.h **** 
 376:/usr/include/newlib/c++/10.3.1/bits/alloc_traits.h ****       /**
 377:/usr/include/newlib/c++/10.3.1/bits/alloc_traits.h ****        *  @brief  The maximum supported allocation size
 378:/usr/include/newlib/c++/10.3.1/bits/alloc_traits.h ****        *  @param  __a  An allocator.
 379:/usr/include/newlib/c++/10.3.1/bits/alloc_traits.h ****        *  @return @c __a.max_size() or @c numeric_limits<size_type>::max()
 380:/usr/include/newlib/c++/10.3.1/bits/alloc_traits.h ****        *
 381:/usr/include/newlib/c++/10.3.1/bits/alloc_traits.h ****        *  Returns @c __a.max_size() if that expression is well-formed,
 382:/usr/include/newlib/c++/10.3.1/bits/alloc_traits.h ****        *  otherwise returns @c numeric_limits<size_type>::max()
 383:/usr/include/newlib/c++/10.3.1/bits/alloc_traits.h ****       */
 384:/usr/include/newlib/c++/10.3.1/bits/alloc_traits.h ****       static _GLIBCXX20_CONSTEXPR size_type
 385:/usr/include/newlib/c++/10.3.1/bits/alloc_traits.h ****       max_size(const _Alloc& __a) noexcept
 386:/usr/include/newlib/c++/10.3.1/bits/alloc_traits.h ****       { return _S_max_size(__a, 0); }
 387:/usr/include/newlib/c++/10.3.1/bits/alloc_traits.h **** 
 388:/usr/include/newlib/c++/10.3.1/bits/alloc_traits.h ****       /**
 389:/usr/include/newlib/c++/10.3.1/bits/alloc_traits.h ****        *  @brief  Obtain an allocator to use when copying a container.
 390:/usr/include/newlib/c++/10.3.1/bits/alloc_traits.h ****        *  @param  __rhs  An allocator.
 391:/usr/include/newlib/c++/10.3.1/bits/alloc_traits.h ****        *  @return @c __rhs.select_on_container_copy_construction() or @a __rhs
 392:/usr/include/newlib/c++/10.3.1/bits/alloc_traits.h ****        *
 393:/usr/include/newlib/c++/10.3.1/bits/alloc_traits.h ****        *  Returns @c __rhs.select_on_container_copy_construction() if that
 394:/usr/include/newlib/c++/10.3.1/bits/alloc_traits.h ****        *  expression is well-formed, otherwise returns @a __rhs
 395:/usr/include/newlib/c++/10.3.1/bits/alloc_traits.h ****       */
 396:/usr/include/newlib/c++/10.3.1/bits/alloc_traits.h ****       static _GLIBCXX20_CONSTEXPR _Alloc
 397:/usr/include/newlib/c++/10.3.1/bits/alloc_traits.h ****       select_on_container_copy_construction(const _Alloc& __rhs)
 398:/usr/include/newlib/c++/10.3.1/bits/alloc_traits.h ****       { return _S_select(__rhs, 0); }
 399:/usr/include/newlib/c++/10.3.1/bits/alloc_traits.h ****     };
 400:/usr/include/newlib/c++/10.3.1/bits/alloc_traits.h **** 
ARM GAS  /tmp/ccRLs6kU.s 			page 46


 401:/usr/include/newlib/c++/10.3.1/bits/alloc_traits.h **** #if __cplusplus > 201703L
 402:/usr/include/newlib/c++/10.3.1/bits/alloc_traits.h **** # define __cpp_lib_constexpr_dynamic_alloc 201907L
 403:/usr/include/newlib/c++/10.3.1/bits/alloc_traits.h **** #endif
 404:/usr/include/newlib/c++/10.3.1/bits/alloc_traits.h **** 
 405:/usr/include/newlib/c++/10.3.1/bits/alloc_traits.h ****   /// Partial specialization for std::allocator.
 406:/usr/include/newlib/c++/10.3.1/bits/alloc_traits.h ****   template<typename _Tp>
 407:/usr/include/newlib/c++/10.3.1/bits/alloc_traits.h ****     struct allocator_traits<allocator<_Tp>>
 408:/usr/include/newlib/c++/10.3.1/bits/alloc_traits.h ****     {
 409:/usr/include/newlib/c++/10.3.1/bits/alloc_traits.h ****       /// The allocator type
 410:/usr/include/newlib/c++/10.3.1/bits/alloc_traits.h ****       using allocator_type = allocator<_Tp>;
 411:/usr/include/newlib/c++/10.3.1/bits/alloc_traits.h **** 
 412:/usr/include/newlib/c++/10.3.1/bits/alloc_traits.h ****       /// The allocated type
 413:/usr/include/newlib/c++/10.3.1/bits/alloc_traits.h ****       using value_type = _Tp;
 414:/usr/include/newlib/c++/10.3.1/bits/alloc_traits.h **** 
 415:/usr/include/newlib/c++/10.3.1/bits/alloc_traits.h ****       /// The allocator's pointer type.
 416:/usr/include/newlib/c++/10.3.1/bits/alloc_traits.h ****       using pointer = _Tp*;
 417:/usr/include/newlib/c++/10.3.1/bits/alloc_traits.h **** 
 418:/usr/include/newlib/c++/10.3.1/bits/alloc_traits.h ****       /// The allocator's const pointer type.
 419:/usr/include/newlib/c++/10.3.1/bits/alloc_traits.h ****       using const_pointer = const _Tp*;
 420:/usr/include/newlib/c++/10.3.1/bits/alloc_traits.h **** 
 421:/usr/include/newlib/c++/10.3.1/bits/alloc_traits.h ****       /// The allocator's void pointer type.
 422:/usr/include/newlib/c++/10.3.1/bits/alloc_traits.h ****       using void_pointer = void*;
 423:/usr/include/newlib/c++/10.3.1/bits/alloc_traits.h **** 
 424:/usr/include/newlib/c++/10.3.1/bits/alloc_traits.h ****       /// The allocator's const void pointer type.
 425:/usr/include/newlib/c++/10.3.1/bits/alloc_traits.h ****       using const_void_pointer = const void*;
 426:/usr/include/newlib/c++/10.3.1/bits/alloc_traits.h **** 
 427:/usr/include/newlib/c++/10.3.1/bits/alloc_traits.h ****       /// The allocator's difference type
 428:/usr/include/newlib/c++/10.3.1/bits/alloc_traits.h ****       using difference_type = std::ptrdiff_t;
 429:/usr/include/newlib/c++/10.3.1/bits/alloc_traits.h **** 
 430:/usr/include/newlib/c++/10.3.1/bits/alloc_traits.h ****       /// The allocator's size type
 431:/usr/include/newlib/c++/10.3.1/bits/alloc_traits.h ****       using size_type = std::size_t;
 432:/usr/include/newlib/c++/10.3.1/bits/alloc_traits.h **** 
 433:/usr/include/newlib/c++/10.3.1/bits/alloc_traits.h ****       /// How the allocator is propagated on copy assignment
 434:/usr/include/newlib/c++/10.3.1/bits/alloc_traits.h ****       using propagate_on_container_copy_assignment = false_type;
 435:/usr/include/newlib/c++/10.3.1/bits/alloc_traits.h **** 
 436:/usr/include/newlib/c++/10.3.1/bits/alloc_traits.h ****       /// How the allocator is propagated on move assignment
 437:/usr/include/newlib/c++/10.3.1/bits/alloc_traits.h ****       using propagate_on_container_move_assignment = true_type;
 438:/usr/include/newlib/c++/10.3.1/bits/alloc_traits.h **** 
 439:/usr/include/newlib/c++/10.3.1/bits/alloc_traits.h ****       /// How the allocator is propagated on swap
 440:/usr/include/newlib/c++/10.3.1/bits/alloc_traits.h ****       using propagate_on_container_swap = false_type;
 441:/usr/include/newlib/c++/10.3.1/bits/alloc_traits.h **** 
 442:/usr/include/newlib/c++/10.3.1/bits/alloc_traits.h ****       /// Whether all instances of the allocator type compare equal.
 443:/usr/include/newlib/c++/10.3.1/bits/alloc_traits.h ****       using is_always_equal = true_type;
 444:/usr/include/newlib/c++/10.3.1/bits/alloc_traits.h **** 
 445:/usr/include/newlib/c++/10.3.1/bits/alloc_traits.h ****       template<typename _Up>
 446:/usr/include/newlib/c++/10.3.1/bits/alloc_traits.h **** 	using rebind_alloc = allocator<_Up>;
 447:/usr/include/newlib/c++/10.3.1/bits/alloc_traits.h **** 
 448:/usr/include/newlib/c++/10.3.1/bits/alloc_traits.h ****       template<typename _Up>
 449:/usr/include/newlib/c++/10.3.1/bits/alloc_traits.h **** 	using rebind_traits = allocator_traits<allocator<_Up>>;
 450:/usr/include/newlib/c++/10.3.1/bits/alloc_traits.h **** 
 451:/usr/include/newlib/c++/10.3.1/bits/alloc_traits.h ****       /**
 452:/usr/include/newlib/c++/10.3.1/bits/alloc_traits.h ****        *  @brief  Allocate memory.
 453:/usr/include/newlib/c++/10.3.1/bits/alloc_traits.h ****        *  @param  __a  An allocator.
 454:/usr/include/newlib/c++/10.3.1/bits/alloc_traits.h ****        *  @param  __n  The number of objects to allocate space for.
 455:/usr/include/newlib/c++/10.3.1/bits/alloc_traits.h ****        *
 456:/usr/include/newlib/c++/10.3.1/bits/alloc_traits.h ****        *  Calls @c a.allocate(n)
 457:/usr/include/newlib/c++/10.3.1/bits/alloc_traits.h ****       */
ARM GAS  /tmp/ccRLs6kU.s 			page 47


 458:/usr/include/newlib/c++/10.3.1/bits/alloc_traits.h ****       _GLIBCXX_NODISCARD static _GLIBCXX20_CONSTEXPR pointer
 459:/usr/include/newlib/c++/10.3.1/bits/alloc_traits.h ****       allocate(allocator_type& __a, size_type __n)
 460:/usr/include/newlib/c++/10.3.1/bits/alloc_traits.h ****       { return __a.allocate(__n); }
 461:/usr/include/newlib/c++/10.3.1/bits/alloc_traits.h **** 
 462:/usr/include/newlib/c++/10.3.1/bits/alloc_traits.h ****       /**
 463:/usr/include/newlib/c++/10.3.1/bits/alloc_traits.h ****        *  @brief  Allocate memory.
 464:/usr/include/newlib/c++/10.3.1/bits/alloc_traits.h ****        *  @param  __a  An allocator.
 465:/usr/include/newlib/c++/10.3.1/bits/alloc_traits.h ****        *  @param  __n  The number of objects to allocate space for.
 466:/usr/include/newlib/c++/10.3.1/bits/alloc_traits.h ****        *  @param  __hint Aid to locality.
 467:/usr/include/newlib/c++/10.3.1/bits/alloc_traits.h ****        *  @return Memory of suitable size and alignment for @a n objects
 468:/usr/include/newlib/c++/10.3.1/bits/alloc_traits.h ****        *          of type @c value_type
 469:/usr/include/newlib/c++/10.3.1/bits/alloc_traits.h ****        *
 470:/usr/include/newlib/c++/10.3.1/bits/alloc_traits.h ****        *  Returns <tt> a.allocate(n, hint) </tt>
 471:/usr/include/newlib/c++/10.3.1/bits/alloc_traits.h ****       */
 472:/usr/include/newlib/c++/10.3.1/bits/alloc_traits.h ****       _GLIBCXX_NODISCARD static _GLIBCXX20_CONSTEXPR pointer
 473:/usr/include/newlib/c++/10.3.1/bits/alloc_traits.h ****       allocate(allocator_type& __a, size_type __n, const_void_pointer __hint)
 474:/usr/include/newlib/c++/10.3.1/bits/alloc_traits.h ****       {
 475:/usr/include/newlib/c++/10.3.1/bits/alloc_traits.h **** #if __cplusplus <= 201703L
 476:/usr/include/newlib/c++/10.3.1/bits/alloc_traits.h **** 	return __a.allocate(__n, __hint);
 477:/usr/include/newlib/c++/10.3.1/bits/alloc_traits.h **** #else
 478:/usr/include/newlib/c++/10.3.1/bits/alloc_traits.h **** 	return __a.allocate(__n);
 479:/usr/include/newlib/c++/10.3.1/bits/alloc_traits.h **** #endif
 480:/usr/include/newlib/c++/10.3.1/bits/alloc_traits.h ****       }
 481:/usr/include/newlib/c++/10.3.1/bits/alloc_traits.h **** 
 482:/usr/include/newlib/c++/10.3.1/bits/alloc_traits.h ****       /**
 483:/usr/include/newlib/c++/10.3.1/bits/alloc_traits.h ****        *  @brief  Deallocate memory.
 484:/usr/include/newlib/c++/10.3.1/bits/alloc_traits.h ****        *  @param  __a  An allocator.
 485:/usr/include/newlib/c++/10.3.1/bits/alloc_traits.h ****        *  @param  __p  Pointer to the memory to deallocate.
 486:/usr/include/newlib/c++/10.3.1/bits/alloc_traits.h ****        *  @param  __n  The number of objects space was allocated for.
 487:/usr/include/newlib/c++/10.3.1/bits/alloc_traits.h ****        *
 488:/usr/include/newlib/c++/10.3.1/bits/alloc_traits.h ****        *  Calls <tt> a.deallocate(p, n) </tt>
 489:/usr/include/newlib/c++/10.3.1/bits/alloc_traits.h ****       */
 490:/usr/include/newlib/c++/10.3.1/bits/alloc_traits.h ****       static _GLIBCXX20_CONSTEXPR void
 491:/usr/include/newlib/c++/10.3.1/bits/alloc_traits.h ****       deallocate(allocator_type& __a, pointer __p, size_type __n)
 521              		.loc 7 491 7 is_stmt 1 view .LVU107
 522              	.LBB409:
 523              	.LBB410:
 524              	.LBI410:
 525              		.file 8 "/usr/include/newlib/c++/10.3.1/ext/new_allocator.h"
   1:/usr/include/newlib/c++/10.3.1/ext/new_allocator.h **** // Allocator that wraps operator new -*- C++ -*-
   2:/usr/include/newlib/c++/10.3.1/ext/new_allocator.h **** 
   3:/usr/include/newlib/c++/10.3.1/ext/new_allocator.h **** // Copyright (C) 2001-2020 Free Software Foundation, Inc.
   4:/usr/include/newlib/c++/10.3.1/ext/new_allocator.h **** //
   5:/usr/include/newlib/c++/10.3.1/ext/new_allocator.h **** // This file is part of the GNU ISO C++ Library.  This library is free
   6:/usr/include/newlib/c++/10.3.1/ext/new_allocator.h **** // software; you can redistribute it and/or modify it under the
   7:/usr/include/newlib/c++/10.3.1/ext/new_allocator.h **** // terms of the GNU General Public License as published by the
   8:/usr/include/newlib/c++/10.3.1/ext/new_allocator.h **** // Free Software Foundation; either version 3, or (at your option)
   9:/usr/include/newlib/c++/10.3.1/ext/new_allocator.h **** // any later version.
  10:/usr/include/newlib/c++/10.3.1/ext/new_allocator.h **** 
  11:/usr/include/newlib/c++/10.3.1/ext/new_allocator.h **** // This library is distributed in the hope that it will be useful,
  12:/usr/include/newlib/c++/10.3.1/ext/new_allocator.h **** // but WITHOUT ANY WARRANTY; without even the implied warranty of
  13:/usr/include/newlib/c++/10.3.1/ext/new_allocator.h **** // MERCHANTABILITY or FITNESS FOR A PARTICULAR PURPOSE.  See the
  14:/usr/include/newlib/c++/10.3.1/ext/new_allocator.h **** // GNU General Public License for more details.
  15:/usr/include/newlib/c++/10.3.1/ext/new_allocator.h **** 
  16:/usr/include/newlib/c++/10.3.1/ext/new_allocator.h **** // Under Section 7 of GPL version 3, you are granted additional
  17:/usr/include/newlib/c++/10.3.1/ext/new_allocator.h **** // permissions described in the GCC Runtime Library Exception, version
  18:/usr/include/newlib/c++/10.3.1/ext/new_allocator.h **** // 3.1, as published by the Free Software Foundation.
ARM GAS  /tmp/ccRLs6kU.s 			page 48


  19:/usr/include/newlib/c++/10.3.1/ext/new_allocator.h **** 
  20:/usr/include/newlib/c++/10.3.1/ext/new_allocator.h **** // You should have received a copy of the GNU General Public License and
  21:/usr/include/newlib/c++/10.3.1/ext/new_allocator.h **** // a copy of the GCC Runtime Library Exception along with this program;
  22:/usr/include/newlib/c++/10.3.1/ext/new_allocator.h **** // see the files COPYING3 and COPYING.RUNTIME respectively.  If not, see
  23:/usr/include/newlib/c++/10.3.1/ext/new_allocator.h **** // <http://www.gnu.org/licenses/>.
  24:/usr/include/newlib/c++/10.3.1/ext/new_allocator.h **** 
  25:/usr/include/newlib/c++/10.3.1/ext/new_allocator.h **** /** @file ext/new_allocator.h
  26:/usr/include/newlib/c++/10.3.1/ext/new_allocator.h ****  *  This file is a GNU extension to the Standard C++ Library.
  27:/usr/include/newlib/c++/10.3.1/ext/new_allocator.h ****  */
  28:/usr/include/newlib/c++/10.3.1/ext/new_allocator.h **** 
  29:/usr/include/newlib/c++/10.3.1/ext/new_allocator.h **** #ifndef _NEW_ALLOCATOR_H
  30:/usr/include/newlib/c++/10.3.1/ext/new_allocator.h **** #define _NEW_ALLOCATOR_H 1
  31:/usr/include/newlib/c++/10.3.1/ext/new_allocator.h **** 
  32:/usr/include/newlib/c++/10.3.1/ext/new_allocator.h **** #include <bits/c++config.h>
  33:/usr/include/newlib/c++/10.3.1/ext/new_allocator.h **** #include <new>
  34:/usr/include/newlib/c++/10.3.1/ext/new_allocator.h **** #include <bits/functexcept.h>
  35:/usr/include/newlib/c++/10.3.1/ext/new_allocator.h **** #include <bits/move.h>
  36:/usr/include/newlib/c++/10.3.1/ext/new_allocator.h **** #if __cplusplus >= 201103L
  37:/usr/include/newlib/c++/10.3.1/ext/new_allocator.h **** #include <type_traits>
  38:/usr/include/newlib/c++/10.3.1/ext/new_allocator.h **** #endif
  39:/usr/include/newlib/c++/10.3.1/ext/new_allocator.h **** 
  40:/usr/include/newlib/c++/10.3.1/ext/new_allocator.h **** namespace __gnu_cxx _GLIBCXX_VISIBILITY(default)
  41:/usr/include/newlib/c++/10.3.1/ext/new_allocator.h **** {
  42:/usr/include/newlib/c++/10.3.1/ext/new_allocator.h **** _GLIBCXX_BEGIN_NAMESPACE_VERSION
  43:/usr/include/newlib/c++/10.3.1/ext/new_allocator.h **** 
  44:/usr/include/newlib/c++/10.3.1/ext/new_allocator.h ****   /**
  45:/usr/include/newlib/c++/10.3.1/ext/new_allocator.h ****    *  @brief  An allocator that uses global new, as per C++03 [20.4.1].
  46:/usr/include/newlib/c++/10.3.1/ext/new_allocator.h ****    *  @ingroup allocators
  47:/usr/include/newlib/c++/10.3.1/ext/new_allocator.h ****    *
  48:/usr/include/newlib/c++/10.3.1/ext/new_allocator.h ****    *  This is precisely the allocator defined in the C++ Standard.
  49:/usr/include/newlib/c++/10.3.1/ext/new_allocator.h ****    *    - all allocation calls operator new
  50:/usr/include/newlib/c++/10.3.1/ext/new_allocator.h ****    *    - all deallocation calls operator delete
  51:/usr/include/newlib/c++/10.3.1/ext/new_allocator.h ****    *
  52:/usr/include/newlib/c++/10.3.1/ext/new_allocator.h ****    *  @tparam  _Tp  Type of allocated object.
  53:/usr/include/newlib/c++/10.3.1/ext/new_allocator.h ****    */
  54:/usr/include/newlib/c++/10.3.1/ext/new_allocator.h ****   template<typename _Tp>
  55:/usr/include/newlib/c++/10.3.1/ext/new_allocator.h ****     class new_allocator
  56:/usr/include/newlib/c++/10.3.1/ext/new_allocator.h ****     {
  57:/usr/include/newlib/c++/10.3.1/ext/new_allocator.h ****     public:
  58:/usr/include/newlib/c++/10.3.1/ext/new_allocator.h ****       typedef _Tp        value_type;
  59:/usr/include/newlib/c++/10.3.1/ext/new_allocator.h ****       typedef std::size_t     size_type;
  60:/usr/include/newlib/c++/10.3.1/ext/new_allocator.h ****       typedef std::ptrdiff_t  difference_type;
  61:/usr/include/newlib/c++/10.3.1/ext/new_allocator.h **** #if __cplusplus <= 201703L
  62:/usr/include/newlib/c++/10.3.1/ext/new_allocator.h ****       typedef _Tp*       pointer;
  63:/usr/include/newlib/c++/10.3.1/ext/new_allocator.h ****       typedef const _Tp* const_pointer;
  64:/usr/include/newlib/c++/10.3.1/ext/new_allocator.h ****       typedef _Tp&       reference;
  65:/usr/include/newlib/c++/10.3.1/ext/new_allocator.h ****       typedef const _Tp& const_reference;
  66:/usr/include/newlib/c++/10.3.1/ext/new_allocator.h **** 
  67:/usr/include/newlib/c++/10.3.1/ext/new_allocator.h ****       template<typename _Tp1>
  68:/usr/include/newlib/c++/10.3.1/ext/new_allocator.h **** 	struct rebind
  69:/usr/include/newlib/c++/10.3.1/ext/new_allocator.h **** 	{ typedef new_allocator<_Tp1> other; };
  70:/usr/include/newlib/c++/10.3.1/ext/new_allocator.h **** #endif
  71:/usr/include/newlib/c++/10.3.1/ext/new_allocator.h **** 
  72:/usr/include/newlib/c++/10.3.1/ext/new_allocator.h **** #if __cplusplus >= 201103L
  73:/usr/include/newlib/c++/10.3.1/ext/new_allocator.h ****       // _GLIBCXX_RESOLVE_LIB_DEFECTS
  74:/usr/include/newlib/c++/10.3.1/ext/new_allocator.h ****       // 2103. propagate_on_container_move_assignment
  75:/usr/include/newlib/c++/10.3.1/ext/new_allocator.h ****       typedef std::true_type propagate_on_container_move_assignment;
ARM GAS  /tmp/ccRLs6kU.s 			page 49


  76:/usr/include/newlib/c++/10.3.1/ext/new_allocator.h **** #endif
  77:/usr/include/newlib/c++/10.3.1/ext/new_allocator.h **** 
  78:/usr/include/newlib/c++/10.3.1/ext/new_allocator.h ****       _GLIBCXX20_CONSTEXPR
  79:/usr/include/newlib/c++/10.3.1/ext/new_allocator.h ****       new_allocator() _GLIBCXX_USE_NOEXCEPT { }
  80:/usr/include/newlib/c++/10.3.1/ext/new_allocator.h **** 
  81:/usr/include/newlib/c++/10.3.1/ext/new_allocator.h ****       _GLIBCXX20_CONSTEXPR
  82:/usr/include/newlib/c++/10.3.1/ext/new_allocator.h ****       new_allocator(const new_allocator&) _GLIBCXX_USE_NOEXCEPT { }
  83:/usr/include/newlib/c++/10.3.1/ext/new_allocator.h **** 
  84:/usr/include/newlib/c++/10.3.1/ext/new_allocator.h ****       template<typename _Tp1>
  85:/usr/include/newlib/c++/10.3.1/ext/new_allocator.h **** 	_GLIBCXX20_CONSTEXPR
  86:/usr/include/newlib/c++/10.3.1/ext/new_allocator.h **** 	new_allocator(const new_allocator<_Tp1>&) _GLIBCXX_USE_NOEXCEPT { }
  87:/usr/include/newlib/c++/10.3.1/ext/new_allocator.h **** 
  88:/usr/include/newlib/c++/10.3.1/ext/new_allocator.h **** #if __cplusplus <= 201703L
  89:/usr/include/newlib/c++/10.3.1/ext/new_allocator.h ****       ~new_allocator() _GLIBCXX_USE_NOEXCEPT { }
  90:/usr/include/newlib/c++/10.3.1/ext/new_allocator.h **** 
  91:/usr/include/newlib/c++/10.3.1/ext/new_allocator.h ****       pointer
  92:/usr/include/newlib/c++/10.3.1/ext/new_allocator.h ****       address(reference __x) const _GLIBCXX_NOEXCEPT
  93:/usr/include/newlib/c++/10.3.1/ext/new_allocator.h ****       { return std::__addressof(__x); }
  94:/usr/include/newlib/c++/10.3.1/ext/new_allocator.h **** 
  95:/usr/include/newlib/c++/10.3.1/ext/new_allocator.h ****       const_pointer
  96:/usr/include/newlib/c++/10.3.1/ext/new_allocator.h ****       address(const_reference __x) const _GLIBCXX_NOEXCEPT
  97:/usr/include/newlib/c++/10.3.1/ext/new_allocator.h ****       { return std::__addressof(__x); }
  98:/usr/include/newlib/c++/10.3.1/ext/new_allocator.h **** #endif
  99:/usr/include/newlib/c++/10.3.1/ext/new_allocator.h **** 
 100:/usr/include/newlib/c++/10.3.1/ext/new_allocator.h ****       // NB: __n is permitted to be 0.  The C++ standard says nothing
 101:/usr/include/newlib/c++/10.3.1/ext/new_allocator.h ****       // about what the return value is when __n == 0.
 102:/usr/include/newlib/c++/10.3.1/ext/new_allocator.h ****       _GLIBCXX_NODISCARD _Tp*
 103:/usr/include/newlib/c++/10.3.1/ext/new_allocator.h ****       allocate(size_type __n, const void* = static_cast<const void*>(0))
 104:/usr/include/newlib/c++/10.3.1/ext/new_allocator.h ****       {
 105:/usr/include/newlib/c++/10.3.1/ext/new_allocator.h **** #if __cplusplus >= 201103L
 106:/usr/include/newlib/c++/10.3.1/ext/new_allocator.h **** 	 // _GLIBCXX_RESOLVE_LIB_DEFECTS
 107:/usr/include/newlib/c++/10.3.1/ext/new_allocator.h **** 	 // 3308. std::allocator<void>().allocate(n)
 108:/usr/include/newlib/c++/10.3.1/ext/new_allocator.h **** 	 static_assert(sizeof(_Tp) != 0, "cannot allocate incomplete types");
 109:/usr/include/newlib/c++/10.3.1/ext/new_allocator.h **** #endif
 110:/usr/include/newlib/c++/10.3.1/ext/new_allocator.h **** 
 111:/usr/include/newlib/c++/10.3.1/ext/new_allocator.h **** 	if (__n > this->_M_max_size())
 112:/usr/include/newlib/c++/10.3.1/ext/new_allocator.h **** 	  std::__throw_bad_alloc();
 113:/usr/include/newlib/c++/10.3.1/ext/new_allocator.h **** 
 114:/usr/include/newlib/c++/10.3.1/ext/new_allocator.h **** #if __cpp_aligned_new
 115:/usr/include/newlib/c++/10.3.1/ext/new_allocator.h **** 	if (alignof(_Tp) > __STDCPP_DEFAULT_NEW_ALIGNMENT__)
 116:/usr/include/newlib/c++/10.3.1/ext/new_allocator.h **** 	  {
 117:/usr/include/newlib/c++/10.3.1/ext/new_allocator.h **** 	    std::align_val_t __al = std::align_val_t(alignof(_Tp));
 118:/usr/include/newlib/c++/10.3.1/ext/new_allocator.h **** 	    return static_cast<_Tp*>(::operator new(__n * sizeof(_Tp), __al));
 119:/usr/include/newlib/c++/10.3.1/ext/new_allocator.h **** 	  }
 120:/usr/include/newlib/c++/10.3.1/ext/new_allocator.h **** #endif
 121:/usr/include/newlib/c++/10.3.1/ext/new_allocator.h **** 	return static_cast<_Tp*>(::operator new(__n * sizeof(_Tp)));
 122:/usr/include/newlib/c++/10.3.1/ext/new_allocator.h ****       }
 123:/usr/include/newlib/c++/10.3.1/ext/new_allocator.h **** 
 124:/usr/include/newlib/c++/10.3.1/ext/new_allocator.h ****       // __p is not permitted to be a null pointer.
 125:/usr/include/newlib/c++/10.3.1/ext/new_allocator.h ****       void
 126:/usr/include/newlib/c++/10.3.1/ext/new_allocator.h ****       deallocate(_Tp* __p, size_type __t)
 526              		.loc 8 126 7 view .LVU108
 527              	.LBB411:
 127:/usr/include/newlib/c++/10.3.1/ext/new_allocator.h ****       {
 128:/usr/include/newlib/c++/10.3.1/ext/new_allocator.h **** #if __cpp_aligned_new
 129:/usr/include/newlib/c++/10.3.1/ext/new_allocator.h **** 	if (alignof(_Tp) > __STDCPP_DEFAULT_NEW_ALIGNMENT__)
 130:/usr/include/newlib/c++/10.3.1/ext/new_allocator.h **** 	  {
ARM GAS  /tmp/ccRLs6kU.s 			page 50


 131:/usr/include/newlib/c++/10.3.1/ext/new_allocator.h **** 	    ::operator delete(__p,
 132:/usr/include/newlib/c++/10.3.1/ext/new_allocator.h **** # if __cpp_sized_deallocation
 133:/usr/include/newlib/c++/10.3.1/ext/new_allocator.h **** 			      __t * sizeof(_Tp),
 134:/usr/include/newlib/c++/10.3.1/ext/new_allocator.h **** # endif
 135:/usr/include/newlib/c++/10.3.1/ext/new_allocator.h **** 			      std::align_val_t(alignof(_Tp)));
 136:/usr/include/newlib/c++/10.3.1/ext/new_allocator.h **** 	    return;
 137:/usr/include/newlib/c++/10.3.1/ext/new_allocator.h **** 	  }
 138:/usr/include/newlib/c++/10.3.1/ext/new_allocator.h **** #endif
 139:/usr/include/newlib/c++/10.3.1/ext/new_allocator.h **** 	::operator delete(__p
 528              		.loc 8 139 19 is_stmt 0 view .LVU109
 529 000c FFF7FEFF 		bl	_ZdlPvj
 530              	.LVL44:
 531              	.L30:
 532              		.loc 8 139 19 view .LVU110
 533              	.LBE411:
 534              	.LBE410:
 535              	.LBE409:
 536              	.LBE408:
 537              	.LBE407:
 538              	.LBE406:
 539              	.LBB412:
 540              	.LBI412:
 128:/usr/include/newlib/c++/10.3.1/bits/stl_vector.h **** 	: public _Tp_alloc_type, public _Vector_impl_data
 541              		.loc 6 128 14 is_stmt 1 view .LVU111
 542              	.LBB413:
 543              	.LBI413:
 544              		.file 9 "/usr/include/newlib/c++/10.3.1/bits/allocator.h"
   1:/usr/include/newlib/c++/10.3.1/bits/allocator.h **** // Allocators -*- C++ -*-
   2:/usr/include/newlib/c++/10.3.1/bits/allocator.h **** 
   3:/usr/include/newlib/c++/10.3.1/bits/allocator.h **** // Copyright (C) 2001-2020 Free Software Foundation, Inc.
   4:/usr/include/newlib/c++/10.3.1/bits/allocator.h **** //
   5:/usr/include/newlib/c++/10.3.1/bits/allocator.h **** // This file is part of the GNU ISO C++ Library.  This library is free
   6:/usr/include/newlib/c++/10.3.1/bits/allocator.h **** // software; you can redistribute it and/or modify it under the
   7:/usr/include/newlib/c++/10.3.1/bits/allocator.h **** // terms of the GNU General Public License as published by the
   8:/usr/include/newlib/c++/10.3.1/bits/allocator.h **** // Free Software Foundation; either version 3, or (at your option)
   9:/usr/include/newlib/c++/10.3.1/bits/allocator.h **** // any later version.
  10:/usr/include/newlib/c++/10.3.1/bits/allocator.h **** 
  11:/usr/include/newlib/c++/10.3.1/bits/allocator.h **** // This library is distributed in the hope that it will be useful,
  12:/usr/include/newlib/c++/10.3.1/bits/allocator.h **** // but WITHOUT ANY WARRANTY; without even the implied warranty of
  13:/usr/include/newlib/c++/10.3.1/bits/allocator.h **** // MERCHANTABILITY or FITNESS FOR A PARTICULAR PURPOSE.  See the
  14:/usr/include/newlib/c++/10.3.1/bits/allocator.h **** // GNU General Public License for more details.
  15:/usr/include/newlib/c++/10.3.1/bits/allocator.h **** 
  16:/usr/include/newlib/c++/10.3.1/bits/allocator.h **** // Under Section 7 of GPL version 3, you are granted additional
  17:/usr/include/newlib/c++/10.3.1/bits/allocator.h **** // permissions described in the GCC Runtime Library Exception, version
  18:/usr/include/newlib/c++/10.3.1/bits/allocator.h **** // 3.1, as published by the Free Software Foundation.
  19:/usr/include/newlib/c++/10.3.1/bits/allocator.h **** 
  20:/usr/include/newlib/c++/10.3.1/bits/allocator.h **** // You should have received a copy of the GNU General Public License and
  21:/usr/include/newlib/c++/10.3.1/bits/allocator.h **** // a copy of the GCC Runtime Library Exception along with this program;
  22:/usr/include/newlib/c++/10.3.1/bits/allocator.h **** // see the files COPYING3 and COPYING.RUNTIME respectively.  If not, see
  23:/usr/include/newlib/c++/10.3.1/bits/allocator.h **** // <http://www.gnu.org/licenses/>.
  24:/usr/include/newlib/c++/10.3.1/bits/allocator.h **** 
  25:/usr/include/newlib/c++/10.3.1/bits/allocator.h **** /*
  26:/usr/include/newlib/c++/10.3.1/bits/allocator.h ****  * Copyright (c) 1996-1997
  27:/usr/include/newlib/c++/10.3.1/bits/allocator.h ****  * Silicon Graphics Computer Systems, Inc.
  28:/usr/include/newlib/c++/10.3.1/bits/allocator.h ****  *
  29:/usr/include/newlib/c++/10.3.1/bits/allocator.h ****  * Permission to use, copy, modify, distribute and sell this software
  30:/usr/include/newlib/c++/10.3.1/bits/allocator.h ****  * and its documentation for any purpose is hereby granted without fee,
ARM GAS  /tmp/ccRLs6kU.s 			page 51


  31:/usr/include/newlib/c++/10.3.1/bits/allocator.h ****  * provided that the above copyright notice appear in all copies and
  32:/usr/include/newlib/c++/10.3.1/bits/allocator.h ****  * that both that copyright notice and this permission notice appear
  33:/usr/include/newlib/c++/10.3.1/bits/allocator.h ****  * in supporting documentation.  Silicon Graphics makes no
  34:/usr/include/newlib/c++/10.3.1/bits/allocator.h ****  * representations about the suitability of this software for any
  35:/usr/include/newlib/c++/10.3.1/bits/allocator.h ****  * purpose.  It is provided "as is" without express or implied warranty.
  36:/usr/include/newlib/c++/10.3.1/bits/allocator.h ****  */
  37:/usr/include/newlib/c++/10.3.1/bits/allocator.h **** 
  38:/usr/include/newlib/c++/10.3.1/bits/allocator.h **** /** @file bits/allocator.h
  39:/usr/include/newlib/c++/10.3.1/bits/allocator.h ****  *  This is an internal header file, included by other library headers.
  40:/usr/include/newlib/c++/10.3.1/bits/allocator.h ****  *  Do not attempt to use it directly. @headername{memory}
  41:/usr/include/newlib/c++/10.3.1/bits/allocator.h ****  */
  42:/usr/include/newlib/c++/10.3.1/bits/allocator.h **** 
  43:/usr/include/newlib/c++/10.3.1/bits/allocator.h **** #ifndef _ALLOCATOR_H
  44:/usr/include/newlib/c++/10.3.1/bits/allocator.h **** #define _ALLOCATOR_H 1
  45:/usr/include/newlib/c++/10.3.1/bits/allocator.h **** 
  46:/usr/include/newlib/c++/10.3.1/bits/allocator.h **** #include <bits/c++allocator.h> // Define the base class to std::allocator.
  47:/usr/include/newlib/c++/10.3.1/bits/allocator.h **** #include <bits/memoryfwd.h>
  48:/usr/include/newlib/c++/10.3.1/bits/allocator.h **** #if __cplusplus >= 201103L
  49:/usr/include/newlib/c++/10.3.1/bits/allocator.h **** #include <type_traits>
  50:/usr/include/newlib/c++/10.3.1/bits/allocator.h **** #endif
  51:/usr/include/newlib/c++/10.3.1/bits/allocator.h **** 
  52:/usr/include/newlib/c++/10.3.1/bits/allocator.h **** #define __cpp_lib_incomplete_container_elements 201505
  53:/usr/include/newlib/c++/10.3.1/bits/allocator.h **** 
  54:/usr/include/newlib/c++/10.3.1/bits/allocator.h **** namespace std _GLIBCXX_VISIBILITY(default)
  55:/usr/include/newlib/c++/10.3.1/bits/allocator.h **** {
  56:/usr/include/newlib/c++/10.3.1/bits/allocator.h **** _GLIBCXX_BEGIN_NAMESPACE_VERSION
  57:/usr/include/newlib/c++/10.3.1/bits/allocator.h **** 
  58:/usr/include/newlib/c++/10.3.1/bits/allocator.h ****   /**
  59:/usr/include/newlib/c++/10.3.1/bits/allocator.h ****    *  @addtogroup allocators
  60:/usr/include/newlib/c++/10.3.1/bits/allocator.h ****    *  @{
  61:/usr/include/newlib/c++/10.3.1/bits/allocator.h ****    */
  62:/usr/include/newlib/c++/10.3.1/bits/allocator.h **** 
  63:/usr/include/newlib/c++/10.3.1/bits/allocator.h ****   // Since C++20 the primary template should be used for allocator<void>,
  64:/usr/include/newlib/c++/10.3.1/bits/allocator.h ****   // but then it would have a non-trivial default ctor and dtor, which
  65:/usr/include/newlib/c++/10.3.1/bits/allocator.h ****   // would be an ABI change. So C++20 still uses the allocator<void> explicit
  66:/usr/include/newlib/c++/10.3.1/bits/allocator.h ****   // specialization, with the historical ABI properties, but with the same
  67:/usr/include/newlib/c++/10.3.1/bits/allocator.h ****   // members that are present in the primary template.
  68:/usr/include/newlib/c++/10.3.1/bits/allocator.h **** 
  69:/usr/include/newlib/c++/10.3.1/bits/allocator.h **** #if ! _GLIBCXX_INLINE_VERSION
  70:/usr/include/newlib/c++/10.3.1/bits/allocator.h ****   /// allocator<void> specialization.
  71:/usr/include/newlib/c++/10.3.1/bits/allocator.h ****   template<>
  72:/usr/include/newlib/c++/10.3.1/bits/allocator.h ****     class allocator<void>
  73:/usr/include/newlib/c++/10.3.1/bits/allocator.h ****     {
  74:/usr/include/newlib/c++/10.3.1/bits/allocator.h ****     public:
  75:/usr/include/newlib/c++/10.3.1/bits/allocator.h ****       typedef void        value_type;
  76:/usr/include/newlib/c++/10.3.1/bits/allocator.h ****       typedef size_t      size_type;
  77:/usr/include/newlib/c++/10.3.1/bits/allocator.h ****       typedef ptrdiff_t   difference_type;
  78:/usr/include/newlib/c++/10.3.1/bits/allocator.h **** 
  79:/usr/include/newlib/c++/10.3.1/bits/allocator.h **** #if __cplusplus <= 201703L
  80:/usr/include/newlib/c++/10.3.1/bits/allocator.h ****       // These were removed for C++20.
  81:/usr/include/newlib/c++/10.3.1/bits/allocator.h ****       typedef void*       pointer;
  82:/usr/include/newlib/c++/10.3.1/bits/allocator.h ****       typedef const void* const_pointer;
  83:/usr/include/newlib/c++/10.3.1/bits/allocator.h **** 
  84:/usr/include/newlib/c++/10.3.1/bits/allocator.h ****       template<typename _Tp1>
  85:/usr/include/newlib/c++/10.3.1/bits/allocator.h **** 	struct rebind
  86:/usr/include/newlib/c++/10.3.1/bits/allocator.h **** 	{ typedef allocator<_Tp1> other; };
  87:/usr/include/newlib/c++/10.3.1/bits/allocator.h **** #endif
ARM GAS  /tmp/ccRLs6kU.s 			page 52


  88:/usr/include/newlib/c++/10.3.1/bits/allocator.h **** 
  89:/usr/include/newlib/c++/10.3.1/bits/allocator.h **** #if __cplusplus >= 201103L
  90:/usr/include/newlib/c++/10.3.1/bits/allocator.h ****       // _GLIBCXX_RESOLVE_LIB_DEFECTS
  91:/usr/include/newlib/c++/10.3.1/bits/allocator.h ****       // 2103. std::allocator propagate_on_container_move_assignment
  92:/usr/include/newlib/c++/10.3.1/bits/allocator.h ****       typedef true_type propagate_on_container_move_assignment;
  93:/usr/include/newlib/c++/10.3.1/bits/allocator.h **** 
  94:/usr/include/newlib/c++/10.3.1/bits/allocator.h ****       typedef true_type is_always_equal;
  95:/usr/include/newlib/c++/10.3.1/bits/allocator.h **** 
  96:/usr/include/newlib/c++/10.3.1/bits/allocator.h **** #if __cplusplus > 201703L
  97:/usr/include/newlib/c++/10.3.1/bits/allocator.h ****       allocator() = default;
  98:/usr/include/newlib/c++/10.3.1/bits/allocator.h **** 
  99:/usr/include/newlib/c++/10.3.1/bits/allocator.h ****       template<typename _Up>
 100:/usr/include/newlib/c++/10.3.1/bits/allocator.h **** 	constexpr
 101:/usr/include/newlib/c++/10.3.1/bits/allocator.h **** 	allocator(const allocator<_Up>&) noexcept { }
 102:/usr/include/newlib/c++/10.3.1/bits/allocator.h **** 
 103:/usr/include/newlib/c++/10.3.1/bits/allocator.h ****       // No allocate member because it's ill-formed by LWG 3307.
 104:/usr/include/newlib/c++/10.3.1/bits/allocator.h ****       // No deallocate member because it would be undefined to call it
 105:/usr/include/newlib/c++/10.3.1/bits/allocator.h ****       // with any pointer which wasn't obtained from allocate.
 106:/usr/include/newlib/c++/10.3.1/bits/allocator.h **** 
 107:/usr/include/newlib/c++/10.3.1/bits/allocator.h **** #else // ! C++20
 108:/usr/include/newlib/c++/10.3.1/bits/allocator.h ****       // allocator_traits<allocator<void>> uses construct and destroy.
 109:/usr/include/newlib/c++/10.3.1/bits/allocator.h ****       template<typename _Up, typename... _Args>
 110:/usr/include/newlib/c++/10.3.1/bits/allocator.h **** 	void
 111:/usr/include/newlib/c++/10.3.1/bits/allocator.h **** 	construct(_Up* __p, _Args&&... __args)
 112:/usr/include/newlib/c++/10.3.1/bits/allocator.h **** 	noexcept(std::is_nothrow_constructible<_Up, _Args...>::value)
 113:/usr/include/newlib/c++/10.3.1/bits/allocator.h **** 	{ ::new((void *)__p) _Up(std::forward<_Args>(__args)...); }
 114:/usr/include/newlib/c++/10.3.1/bits/allocator.h **** 
 115:/usr/include/newlib/c++/10.3.1/bits/allocator.h ****       template<typename _Up>
 116:/usr/include/newlib/c++/10.3.1/bits/allocator.h **** 	void
 117:/usr/include/newlib/c++/10.3.1/bits/allocator.h **** 	destroy(_Up* __p)
 118:/usr/include/newlib/c++/10.3.1/bits/allocator.h **** 	noexcept(std::is_nothrow_destructible<_Up>::value)
 119:/usr/include/newlib/c++/10.3.1/bits/allocator.h **** 	{ __p->~_Up(); }
 120:/usr/include/newlib/c++/10.3.1/bits/allocator.h **** #endif // C++17
 121:/usr/include/newlib/c++/10.3.1/bits/allocator.h **** #endif // C++11
 122:/usr/include/newlib/c++/10.3.1/bits/allocator.h ****     };
 123:/usr/include/newlib/c++/10.3.1/bits/allocator.h **** #endif // ! _GLIBCXX_INLINE_VERSION
 124:/usr/include/newlib/c++/10.3.1/bits/allocator.h **** 
 125:/usr/include/newlib/c++/10.3.1/bits/allocator.h ****   /**
 126:/usr/include/newlib/c++/10.3.1/bits/allocator.h ****    * @brief  The @a standard allocator, as per C++03 [20.4.1].
 127:/usr/include/newlib/c++/10.3.1/bits/allocator.h ****    *
 128:/usr/include/newlib/c++/10.3.1/bits/allocator.h ****    *  See https://gcc.gnu.org/onlinedocs/libstdc++/manual/memory.html#std.util.memory.allocator
 129:/usr/include/newlib/c++/10.3.1/bits/allocator.h ****    *  for further details.
 130:/usr/include/newlib/c++/10.3.1/bits/allocator.h ****    *
 131:/usr/include/newlib/c++/10.3.1/bits/allocator.h ****    *  @tparam  _Tp  Type of allocated object.
 132:/usr/include/newlib/c++/10.3.1/bits/allocator.h ****    */
 133:/usr/include/newlib/c++/10.3.1/bits/allocator.h ****   template<typename _Tp>
 134:/usr/include/newlib/c++/10.3.1/bits/allocator.h ****     class allocator : public __allocator_base<_Tp>
 135:/usr/include/newlib/c++/10.3.1/bits/allocator.h ****     {
 136:/usr/include/newlib/c++/10.3.1/bits/allocator.h ****     public:
 137:/usr/include/newlib/c++/10.3.1/bits/allocator.h ****       typedef _Tp        value_type;
 138:/usr/include/newlib/c++/10.3.1/bits/allocator.h ****       typedef size_t     size_type;
 139:/usr/include/newlib/c++/10.3.1/bits/allocator.h ****       typedef ptrdiff_t  difference_type;
 140:/usr/include/newlib/c++/10.3.1/bits/allocator.h **** 
 141:/usr/include/newlib/c++/10.3.1/bits/allocator.h **** #if __cplusplus <= 201703L
 142:/usr/include/newlib/c++/10.3.1/bits/allocator.h ****       // These were removed for C++20.
 143:/usr/include/newlib/c++/10.3.1/bits/allocator.h ****       typedef _Tp*       pointer;
 144:/usr/include/newlib/c++/10.3.1/bits/allocator.h ****       typedef const _Tp* const_pointer;
ARM GAS  /tmp/ccRLs6kU.s 			page 53


 145:/usr/include/newlib/c++/10.3.1/bits/allocator.h ****       typedef _Tp&       reference;
 146:/usr/include/newlib/c++/10.3.1/bits/allocator.h ****       typedef const _Tp& const_reference;
 147:/usr/include/newlib/c++/10.3.1/bits/allocator.h **** 
 148:/usr/include/newlib/c++/10.3.1/bits/allocator.h ****       template<typename _Tp1>
 149:/usr/include/newlib/c++/10.3.1/bits/allocator.h **** 	struct rebind
 150:/usr/include/newlib/c++/10.3.1/bits/allocator.h **** 	{ typedef allocator<_Tp1> other; };
 151:/usr/include/newlib/c++/10.3.1/bits/allocator.h **** #endif
 152:/usr/include/newlib/c++/10.3.1/bits/allocator.h **** 
 153:/usr/include/newlib/c++/10.3.1/bits/allocator.h **** #if __cplusplus >= 201103L
 154:/usr/include/newlib/c++/10.3.1/bits/allocator.h ****       // _GLIBCXX_RESOLVE_LIB_DEFECTS
 155:/usr/include/newlib/c++/10.3.1/bits/allocator.h ****       // 2103. std::allocator propagate_on_container_move_assignment
 156:/usr/include/newlib/c++/10.3.1/bits/allocator.h ****       typedef true_type propagate_on_container_move_assignment;
 157:/usr/include/newlib/c++/10.3.1/bits/allocator.h **** 
 158:/usr/include/newlib/c++/10.3.1/bits/allocator.h ****       typedef true_type is_always_equal;
 159:/usr/include/newlib/c++/10.3.1/bits/allocator.h **** #endif
 160:/usr/include/newlib/c++/10.3.1/bits/allocator.h **** 
 161:/usr/include/newlib/c++/10.3.1/bits/allocator.h ****       // _GLIBCXX_RESOLVE_LIB_DEFECTS
 162:/usr/include/newlib/c++/10.3.1/bits/allocator.h ****       // 3035. std::allocator's constructors should be constexpr
 163:/usr/include/newlib/c++/10.3.1/bits/allocator.h ****       _GLIBCXX20_CONSTEXPR
 164:/usr/include/newlib/c++/10.3.1/bits/allocator.h ****       allocator() _GLIBCXX_NOTHROW { }
 165:/usr/include/newlib/c++/10.3.1/bits/allocator.h **** 
 166:/usr/include/newlib/c++/10.3.1/bits/allocator.h ****       _GLIBCXX20_CONSTEXPR
 167:/usr/include/newlib/c++/10.3.1/bits/allocator.h ****       allocator(const allocator& __a) _GLIBCXX_NOTHROW
 168:/usr/include/newlib/c++/10.3.1/bits/allocator.h ****       : __allocator_base<_Tp>(__a) { }
 169:/usr/include/newlib/c++/10.3.1/bits/allocator.h **** 
 170:/usr/include/newlib/c++/10.3.1/bits/allocator.h **** #if __cplusplus >= 201103L
 171:/usr/include/newlib/c++/10.3.1/bits/allocator.h ****       // Avoid implicit deprecation.
 172:/usr/include/newlib/c++/10.3.1/bits/allocator.h ****       allocator& operator=(const allocator&) = default;
 173:/usr/include/newlib/c++/10.3.1/bits/allocator.h **** #endif
 174:/usr/include/newlib/c++/10.3.1/bits/allocator.h **** 
 175:/usr/include/newlib/c++/10.3.1/bits/allocator.h ****       template<typename _Tp1>
 176:/usr/include/newlib/c++/10.3.1/bits/allocator.h **** 	_GLIBCXX20_CONSTEXPR
 177:/usr/include/newlib/c++/10.3.1/bits/allocator.h **** 	allocator(const allocator<_Tp1>&) _GLIBCXX_NOTHROW { }
 178:/usr/include/newlib/c++/10.3.1/bits/allocator.h **** 
 179:/usr/include/newlib/c++/10.3.1/bits/allocator.h **** #if __cpp_constexpr_dynamic_alloc
 180:/usr/include/newlib/c++/10.3.1/bits/allocator.h ****       constexpr
 181:/usr/include/newlib/c++/10.3.1/bits/allocator.h **** #endif
 182:/usr/include/newlib/c++/10.3.1/bits/allocator.h ****       ~allocator() _GLIBCXX_NOTHROW { }
 545              		.loc 9 182 7 view .LVU112
 546              	.LBB414:
 547              	.LBI414:
  89:/usr/include/newlib/c++/10.3.1/ext/new_allocator.h **** 
 548              		.loc 8 89 7 view .LVU113
  89:/usr/include/newlib/c++/10.3.1/ext/new_allocator.h **** 
 549              		.loc 8 89 7 is_stmt 0 view .LVU114
 550              	.LBE414:
 551              	.LBE413:
 552              	.LBE412:
 553              	.LBE405:
 337:/usr/include/newlib/c++/10.3.1/bits/stl_vector.h **** 
 554              		.loc 6 337 7 view .LVU115
 555 0010 2046     		mov	r0, r4
 556 0012 10BD     		pop	{r4, pc}
 337:/usr/include/newlib/c++/10.3.1/bits/stl_vector.h **** 
 557              		.loc 6 337 7 view .LVU116
 558              		.cfi_endproc
 559              	.LFE1899:
ARM GAS  /tmp/ccRLs6kU.s 			page 54


 560              		.cantunwind
 561              		.fnend
 563              		.weak	_ZNSt12_Vector_baseIcSaIcEED1Ev
 564              		.thumb_set _ZNSt12_Vector_baseIcSaIcEED1Ev,_ZNSt12_Vector_baseIcSaIcEED2Ev
 565              		.section	.rodata._Z13serial_printfIJEEvRKNSt7__cxx1112basic_stringIcSt11char_traitsIcESaIcEEEDpT_.
 566              		.align	2
 567              	.LC2:
 568 0000 63616E6E 		.ascii	"cannot create std::vector larger than max_size()\000"
 568      6F742063 
 568      72656174 
 568      65207374 
 568      643A3A76 
 569              		.section	.text._Z13serial_printfIJEEvRKNSt7__cxx1112basic_stringIcSt11char_traitsIcESaIcEEEDpT_,"a
 570              		.align	1
 571              		.weak	_Z13serial_printfIJEEvRKNSt7__cxx1112basic_stringIcSt11char_traitsIcESaIcEEEDpT_
 572              		.syntax unified
 573              		.thumb
 574              		.thumb_func
 575              		.fpu fpv4-sp-d16
 577              	_Z13serial_printfIJEEvRKNSt7__cxx1112basic_stringIcSt11char_traitsIcESaIcEEEDpT_:
 578              		.fnstart
 579              	.LVL45:
 580              	.LFB1748:
 581              		.file 10 "Peripheral/Inc/serial_printf.hpp"
   1:Peripheral/Inc/serial_printf.hpp **** #pragma once
   2:Peripheral/Inc/serial_printf.hpp **** #include <string>
   3:Peripheral/Inc/serial_printf.hpp **** #include <vector>
   4:Peripheral/Inc/serial_printf.hpp **** #include <cstdio>
   5:Peripheral/Inc/serial_printf.hpp **** #include "usart.h"
   6:Peripheral/Inc/serial_printf.hpp **** 
